ARM GAS  /tmp/ccSfVELv.s 			page 1


   1              		.cpu cortex-m7
   2              		.eabi_attribute 28, 1
   3              		.eabi_attribute 20, 1
   4              		.eabi_attribute 21, 1
   5              		.eabi_attribute 23, 3
   6              		.eabi_attribute 24, 1
   7              		.eabi_attribute 25, 1
   8              		.eabi_attribute 26, 1
   9              		.eabi_attribute 30, 1
  10              		.eabi_attribute 34, 1
  11              		.eabi_attribute 18, 4
  12              		.file	"dac.c"
  13              		.text
  14              	.Ltext0:
  15              		.cfi_sections	.debug_frame
  16              		.section	.text.MX_DAC1_Init,"ax",%progbits
  17              		.align	1
  18              		.global	MX_DAC1_Init
  19              		.arch armv7e-m
  20              		.syntax unified
  21              		.thumb
  22              		.thumb_func
  23              		.fpu fpv5-d16
  25              	MX_DAC1_Init:
  26              	.LFB137:
  27              		.file 1 "Src/dac.c"
   1:Src/dac.c     **** /**
   2:Src/dac.c     ****   ******************************************************************************
   3:Src/dac.c     ****   * File Name          : DAC.c
   4:Src/dac.c     ****   * Description        : This file provides code for the configuration
   5:Src/dac.c     ****   *                      of the DAC instances.
   6:Src/dac.c     ****   ******************************************************************************
   7:Src/dac.c     ****   ** This notice applies to any and all portions of this file
   8:Src/dac.c     ****   * that are not between comment pairs USER CODE BEGIN and
   9:Src/dac.c     ****   * USER CODE END. Other portions of this file, whether 
  10:Src/dac.c     ****   * inserted by the user or by software development tools
  11:Src/dac.c     ****   * are owned by their respective copyright owners.
  12:Src/dac.c     ****   *
  13:Src/dac.c     ****   * COPYRIGHT(c) 2018 STMicroelectronics
  14:Src/dac.c     ****   *
  15:Src/dac.c     ****   * Redistribution and use in source and binary forms, with or without modification,
  16:Src/dac.c     ****   * are permitted provided that the following conditions are met:
  17:Src/dac.c     ****   *   1. Redistributions of source code must retain the above copyright notice,
  18:Src/dac.c     ****   *      this list of conditions and the following disclaimer.
  19:Src/dac.c     ****   *   2. Redistributions in binary form must reproduce the above copyright notice,
  20:Src/dac.c     ****   *      this list of conditions and the following disclaimer in the documentation
  21:Src/dac.c     ****   *      and/or other materials provided with the distribution.
  22:Src/dac.c     ****   *   3. Neither the name of STMicroelectronics nor the names of its contributors
  23:Src/dac.c     ****   *      may be used to endorse or promote products derived from this software
  24:Src/dac.c     ****   *      without specific prior written permission.
  25:Src/dac.c     ****   *
  26:Src/dac.c     ****   * THIS SOFTWARE IS PROVIDED BY THE COPYRIGHT HOLDERS AND CONTRIBUTORS "AS IS"
  27:Src/dac.c     ****   * AND ANY EXPRESS OR IMPLIED WARRANTIES, INCLUDING, BUT NOT LIMITED TO, THE
  28:Src/dac.c     ****   * IMPLIED WARRANTIES OF MERCHANTABILITY AND FITNESS FOR A PARTICULAR PURPOSE ARE
  29:Src/dac.c     ****   * DISCLAIMED. IN NO EVENT SHALL THE COPYRIGHT HOLDER OR CONTRIBUTORS BE LIABLE
  30:Src/dac.c     ****   * FOR ANY DIRECT, INDIRECT, INCIDENTAL, SPECIAL, EXEMPLARY, OR CONSEQUENTIAL
  31:Src/dac.c     ****   * DAMAGES (INCLUDING, BUT NOT LIMITED TO, PROCUREMENT OF SUBSTITUTE GOODS OR
ARM GAS  /tmp/ccSfVELv.s 			page 2


  32:Src/dac.c     ****   * SERVICES; LOSS OF USE, DATA, OR PROFITS; OR BUSINESS INTERRUPTION) HOWEVER
  33:Src/dac.c     ****   * CAUSED AND ON ANY THEORY OF LIABILITY, WHETHER IN CONTRACT, STRICT LIABILITY,
  34:Src/dac.c     ****   * OR TORT (INCLUDING NEGLIGENCE OR OTHERWISE) ARISING IN ANY WAY OUT OF THE USE
  35:Src/dac.c     ****   * OF THIS SOFTWARE, EVEN IF ADVISED OF THE POSSIBILITY OF SUCH DAMAGE.
  36:Src/dac.c     ****   *
  37:Src/dac.c     ****   ******************************************************************************
  38:Src/dac.c     ****   */
  39:Src/dac.c     **** 
  40:Src/dac.c     **** /* Includes ------------------------------------------------------------------*/
  41:Src/dac.c     **** #include "dac.h"
  42:Src/dac.c     **** 
  43:Src/dac.c     **** #include "gpio.h"
  44:Src/dac.c     **** 
  45:Src/dac.c     **** /* USER CODE BEGIN 0 */
  46:Src/dac.c     **** 
  47:Src/dac.c     **** /* USER CODE END 0 */
  48:Src/dac.c     **** 
  49:Src/dac.c     **** DAC_HandleTypeDef hdac1;
  50:Src/dac.c     **** 
  51:Src/dac.c     **** /* DAC1 init function */
  52:Src/dac.c     **** void MX_DAC1_Init(void)
  53:Src/dac.c     **** {
  28              		.loc 1 53 1 view -0
  29              		.cfi_startproc
  30              		@ args = 0, pretend = 0, frame = 40
  31              		@ frame_needed = 0, uses_anonymous_args = 0
  32 0000 00B5     		push	{lr}
  33              	.LCFI0:
  34              		.cfi_def_cfa_offset 4
  35              		.cfi_offset 14, -4
  36 0002 8BB0     		sub	sp, sp, #44
  37              	.LCFI1:
  38              		.cfi_def_cfa_offset 48
  54:Src/dac.c     ****   DAC_ChannelConfTypeDef sConfig;
  39              		.loc 1 54 3 view .LVU1
  55:Src/dac.c     **** 
  56:Src/dac.c     ****     /**DAC Initialization 
  57:Src/dac.c     ****     */
  58:Src/dac.c     ****   hdac1.Instance = DAC1;
  40              		.loc 1 58 3 view .LVU2
  41              		.loc 1 58 18 is_stmt 0 view .LVU3
  42 0004 0E48     		ldr	r0, .L7
  43 0006 0F4B     		ldr	r3, .L7+4
  44 0008 0360     		str	r3, [r0]
  59:Src/dac.c     ****   if (HAL_DAC_Init(&hdac1) != HAL_OK)
  45              		.loc 1 59 3 is_stmt 1 view .LVU4
  46              		.loc 1 59 7 is_stmt 0 view .LVU5
  47 000a FFF7FEFF 		bl	HAL_DAC_Init
  48              	.LVL0:
  49              		.loc 1 59 6 view .LVU6
  50 000e 68B9     		cbnz	r0, .L5
  51              	.L2:
  60:Src/dac.c     ****   {
  61:Src/dac.c     ****     _Error_Handler(__FILE__, __LINE__);
  62:Src/dac.c     ****   }
  63:Src/dac.c     **** 
  64:Src/dac.c     ****     /**DAC channel OUT1 config 
ARM GAS  /tmp/ccSfVELv.s 			page 3


  65:Src/dac.c     ****     */
  66:Src/dac.c     ****   sConfig.DAC_SampleAndHold = DAC_SAMPLEANDHOLD_DISABLE;
  52              		.loc 1 66 3 is_stmt 1 view .LVU7
  53              		.loc 1 66 29 is_stmt 0 view .LVU8
  54 0010 0022     		movs	r2, #0
  55 0012 0192     		str	r2, [sp, #4]
  67:Src/dac.c     ****   sConfig.DAC_Trigger = DAC_TRIGGER_NONE;
  56              		.loc 1 67 3 is_stmt 1 view .LVU9
  57              		.loc 1 67 23 is_stmt 0 view .LVU10
  58 0014 0292     		str	r2, [sp, #8]
  68:Src/dac.c     ****   sConfig.DAC_OutputBuffer = DAC_OUTPUTBUFFER_ENABLE;
  59              		.loc 1 68 3 is_stmt 1 view .LVU11
  60              		.loc 1 68 28 is_stmt 0 view .LVU12
  61 0016 0392     		str	r2, [sp, #12]
  69:Src/dac.c     ****   sConfig.DAC_ConnectOnChipPeripheral = DAC_CHIPCONNECT_DISABLE;
  62              		.loc 1 69 3 is_stmt 1 view .LVU13
  63              		.loc 1 69 39 is_stmt 0 view .LVU14
  64 0018 0492     		str	r2, [sp, #16]
  70:Src/dac.c     ****   sConfig.DAC_UserTrimming = DAC_TRIMMING_FACTORY;
  65              		.loc 1 70 3 is_stmt 1 view .LVU15
  66              		.loc 1 70 28 is_stmt 0 view .LVU16
  67 001a 0592     		str	r2, [sp, #20]
  71:Src/dac.c     ****   if (HAL_DAC_ConfigChannel(&hdac1, &sConfig, DAC_CHANNEL_1) != HAL_OK)
  68              		.loc 1 71 3 is_stmt 1 view .LVU17
  69              		.loc 1 71 7 is_stmt 0 view .LVU18
  70 001c 01A9     		add	r1, sp, #4
  71 001e 0848     		ldr	r0, .L7
  72 0020 FFF7FEFF 		bl	HAL_DAC_ConfigChannel
  73              	.LVL1:
  74              		.loc 1 71 6 view .LVU19
  75 0024 38B9     		cbnz	r0, .L6
  76              	.L1:
  72:Src/dac.c     ****   {
  73:Src/dac.c     ****     _Error_Handler(__FILE__, __LINE__);
  74:Src/dac.c     ****   }
  75:Src/dac.c     **** 
  76:Src/dac.c     **** }
  77              		.loc 1 76 1 view .LVU20
  78 0026 0BB0     		add	sp, sp, #44
  79              	.LCFI2:
  80              		.cfi_remember_state
  81              		.cfi_def_cfa_offset 4
  82              		@ sp needed
  83 0028 5DF804FB 		ldr	pc, [sp], #4
  84              	.L5:
  85              	.LCFI3:
  86              		.cfi_restore_state
  61:Src/dac.c     ****   }
  87              		.loc 1 61 5 is_stmt 1 view .LVU21
  88 002c 3D21     		movs	r1, #61
  89 002e 0648     		ldr	r0, .L7+8
  90 0030 FFF7FEFF 		bl	_Error_Handler
  91              	.LVL2:
  92 0034 ECE7     		b	.L2
  93              	.L6:
  73:Src/dac.c     ****   }
  94              		.loc 1 73 5 view .LVU22
ARM GAS  /tmp/ccSfVELv.s 			page 4


  95 0036 4921     		movs	r1, #73
  96 0038 0348     		ldr	r0, .L7+8
  97 003a FFF7FEFF 		bl	_Error_Handler
  98              	.LVL3:
  99              		.loc 1 76 1 is_stmt 0 view .LVU23
 100 003e F2E7     		b	.L1
 101              	.L8:
 102              		.align	2
 103              	.L7:
 104 0040 00000000 		.word	hdac1
 105 0044 00740040 		.word	1073771520
 106 0048 00000000 		.word	.LC0
 107              		.cfi_endproc
 108              	.LFE137:
 110              		.section	.text.HAL_DAC_MspInit,"ax",%progbits
 111              		.align	1
 112              		.global	HAL_DAC_MspInit
 113              		.syntax unified
 114              		.thumb
 115              		.thumb_func
 116              		.fpu fpv5-d16
 118              	HAL_DAC_MspInit:
 119              	.LVL4:
 120              	.LFB138:
  77:Src/dac.c     **** 
  78:Src/dac.c     **** void HAL_DAC_MspInit(DAC_HandleTypeDef* dacHandle)
  79:Src/dac.c     **** {
 121              		.loc 1 79 1 is_stmt 1 view -0
 122              		.cfi_startproc
 123              		@ args = 0, pretend = 0, frame = 24
 124              		@ frame_needed = 0, uses_anonymous_args = 0
  80:Src/dac.c     **** 
  81:Src/dac.c     ****   GPIO_InitTypeDef GPIO_InitStruct;
 125              		.loc 1 81 3 view .LVU25
  82:Src/dac.c     ****   if(dacHandle->Instance==DAC1)
 126              		.loc 1 82 3 view .LVU26
 127              		.loc 1 82 15 is_stmt 0 view .LVU27
 128 0000 0268     		ldr	r2, [r0]
 129              		.loc 1 82 5 view .LVU28
 130 0002 104B     		ldr	r3, .L16
 131 0004 9A42     		cmp	r2, r3
 132 0006 00D0     		beq	.L15
 133 0008 7047     		bx	lr
 134              	.L15:
  79:Src/dac.c     **** 
 135              		.loc 1 79 1 view .LVU29
 136 000a 00B5     		push	{lr}
 137              	.LCFI4:
 138              		.cfi_def_cfa_offset 4
 139              		.cfi_offset 14, -4
 140 000c 87B0     		sub	sp, sp, #28
 141              	.LCFI5:
 142              		.cfi_def_cfa_offset 32
  83:Src/dac.c     ****   {
  84:Src/dac.c     ****   /* USER CODE BEGIN DAC1_MspInit 0 */
  85:Src/dac.c     **** 
  86:Src/dac.c     ****   /* USER CODE END DAC1_MspInit 0 */
ARM GAS  /tmp/ccSfVELv.s 			page 5


  87:Src/dac.c     ****     /* DAC1 clock enable */
  88:Src/dac.c     ****     __HAL_RCC_DAC12_CLK_ENABLE();
 143              		.loc 1 88 5 is_stmt 1 view .LVU30
 144              	.LBB2:
 145              		.loc 1 88 5 view .LVU31
 146              		.loc 1 88 5 view .LVU32
 147 000e 0E4B     		ldr	r3, .L16+4
 148 0010 D3F8E820 		ldr	r2, [r3, #232]
 149 0014 42F00052 		orr	r2, r2, #536870912
 150 0018 C3F8E820 		str	r2, [r3, #232]
 151              		.loc 1 88 5 view .LVU33
 152 001c D3F8E830 		ldr	r3, [r3, #232]
 153 0020 03F00053 		and	r3, r3, #536870912
 154 0024 0093     		str	r3, [sp]
 155              		.loc 1 88 5 view .LVU34
 156 0026 009B     		ldr	r3, [sp]
 157              	.LBE2:
  89:Src/dac.c     ****   
  90:Src/dac.c     ****     /**DAC1 GPIO Configuration    
  91:Src/dac.c     ****     PA4     ------> DAC1_OUT1 
  92:Src/dac.c     ****     */
  93:Src/dac.c     ****     GPIO_InitStruct.Pin = GPIO_PIN_4;
 158              		.loc 1 93 5 view .LVU35
 159              		.loc 1 93 25 is_stmt 0 view .LVU36
 160 0028 1023     		movs	r3, #16
 161 002a 0193     		str	r3, [sp, #4]
  94:Src/dac.c     ****     GPIO_InitStruct.Mode = GPIO_MODE_ANALOG;
 162              		.loc 1 94 5 is_stmt 1 view .LVU37
 163              		.loc 1 94 26 is_stmt 0 view .LVU38
 164 002c 0323     		movs	r3, #3
 165 002e 0293     		str	r3, [sp, #8]
  95:Src/dac.c     ****     GPIO_InitStruct.Pull = GPIO_NOPULL;
 166              		.loc 1 95 5 is_stmt 1 view .LVU39
 167              		.loc 1 95 26 is_stmt 0 view .LVU40
 168 0030 0023     		movs	r3, #0
 169 0032 0393     		str	r3, [sp, #12]
  96:Src/dac.c     ****     HAL_GPIO_Init(GPIOA, &GPIO_InitStruct);
 170              		.loc 1 96 5 is_stmt 1 view .LVU41
 171 0034 01A9     		add	r1, sp, #4
 172 0036 0548     		ldr	r0, .L16+8
 173              	.LVL5:
 174              		.loc 1 96 5 is_stmt 0 view .LVU42
 175 0038 FFF7FEFF 		bl	HAL_GPIO_Init
 176              	.LVL6:
  97:Src/dac.c     **** 
  98:Src/dac.c     ****   /* USER CODE BEGIN DAC1_MspInit 1 */
  99:Src/dac.c     **** 
 100:Src/dac.c     ****   /* USER CODE END DAC1_MspInit 1 */
 101:Src/dac.c     ****   }
 102:Src/dac.c     **** }
 177              		.loc 1 102 1 view .LVU43
 178 003c 07B0     		add	sp, sp, #28
 179              	.LCFI6:
 180              		.cfi_def_cfa_offset 4
 181              		@ sp needed
 182 003e 5DF804FB 		ldr	pc, [sp], #4
 183              	.L17:
ARM GAS  /tmp/ccSfVELv.s 			page 6


 184 0042 00BF     		.align	2
 185              	.L16:
 186 0044 00740040 		.word	1073771520
 187 0048 00440258 		.word	1476543488
 188 004c 00000258 		.word	1476526080
 189              		.cfi_endproc
 190              	.LFE138:
 192              		.section	.text.HAL_DAC_MspDeInit,"ax",%progbits
 193              		.align	1
 194              		.global	HAL_DAC_MspDeInit
 195              		.syntax unified
 196              		.thumb
 197              		.thumb_func
 198              		.fpu fpv5-d16
 200              	HAL_DAC_MspDeInit:
 201              	.LVL7:
 202              	.LFB139:
 103:Src/dac.c     **** 
 104:Src/dac.c     **** void HAL_DAC_MspDeInit(DAC_HandleTypeDef* dacHandle)
 105:Src/dac.c     **** {
 203              		.loc 1 105 1 is_stmt 1 view -0
 204              		.cfi_startproc
 205              		@ args = 0, pretend = 0, frame = 0
 206              		@ frame_needed = 0, uses_anonymous_args = 0
 207              		.loc 1 105 1 is_stmt 0 view .LVU45
 208 0000 08B5     		push	{r3, lr}
 209              	.LCFI7:
 210              		.cfi_def_cfa_offset 8
 211              		.cfi_offset 3, -8
 212              		.cfi_offset 14, -4
 106:Src/dac.c     **** 
 107:Src/dac.c     ****   if(dacHandle->Instance==DAC1)
 213              		.loc 1 107 3 is_stmt 1 view .LVU46
 214              		.loc 1 107 15 is_stmt 0 view .LVU47
 215 0002 0268     		ldr	r2, [r0]
 216              		.loc 1 107 5 view .LVU48
 217 0004 074B     		ldr	r3, .L22
 218 0006 9A42     		cmp	r2, r3
 219 0008 00D0     		beq	.L21
 220              	.LVL8:
 221              	.L18:
 108:Src/dac.c     ****   {
 109:Src/dac.c     ****   /* USER CODE BEGIN DAC1_MspDeInit 0 */
 110:Src/dac.c     **** 
 111:Src/dac.c     ****   /* USER CODE END DAC1_MspDeInit 0 */
 112:Src/dac.c     ****     /* Peripheral clock disable */
 113:Src/dac.c     ****     __HAL_RCC_DAC12_CLK_DISABLE();
 114:Src/dac.c     ****   
 115:Src/dac.c     ****     /**DAC1 GPIO Configuration    
 116:Src/dac.c     ****     PA4     ------> DAC1_OUT1 
 117:Src/dac.c     ****     */
 118:Src/dac.c     ****     HAL_GPIO_DeInit(GPIOA, GPIO_PIN_4);
 119:Src/dac.c     **** 
 120:Src/dac.c     ****   /* USER CODE BEGIN DAC1_MspDeInit 1 */
 121:Src/dac.c     **** 
 122:Src/dac.c     ****   /* USER CODE END DAC1_MspDeInit 1 */
 123:Src/dac.c     ****   }
ARM GAS  /tmp/ccSfVELv.s 			page 7


 124:Src/dac.c     **** } 
 222              		.loc 1 124 1 view .LVU49
 223 000a 08BD     		pop	{r3, pc}
 224              	.LVL9:
 225              	.L21:
 113:Src/dac.c     ****   
 226              		.loc 1 113 5 is_stmt 1 view .LVU50
 227 000c 064A     		ldr	r2, .L22+4
 228 000e D2F8E830 		ldr	r3, [r2, #232]
 229 0012 23F00053 		bic	r3, r3, #536870912
 230 0016 C2F8E830 		str	r3, [r2, #232]
 118:Src/dac.c     **** 
 231              		.loc 1 118 5 view .LVU51
 232 001a 1021     		movs	r1, #16
 233 001c 0348     		ldr	r0, .L22+8
 234              	.LVL10:
 118:Src/dac.c     **** 
 235              		.loc 1 118 5 is_stmt 0 view .LVU52
 236 001e FFF7FEFF 		bl	HAL_GPIO_DeInit
 237              	.LVL11:
 238              		.loc 1 124 1 view .LVU53
 239 0022 F2E7     		b	.L18
 240              	.L23:
 241              		.align	2
 242              	.L22:
 243 0024 00740040 		.word	1073771520
 244 0028 00440258 		.word	1476543488
 245 002c 00000258 		.word	1476526080
 246              		.cfi_endproc
 247              	.LFE139:
 249              		.comm	hdac1,20,4
 250              		.section	.rodata.MX_DAC1_Init.str1.4,"aMS",%progbits,1
 251              		.align	2
 252              	.LC0:
 253 0000 5372632F 		.ascii	"Src/dac.c\000"
 253      6461632E 
 253      6300
 254              		.text
 255              	.Letext0:
 256              		.file 2 "/usr/arm-none-eabi/include/machine/_default_types.h"
 257              		.file 3 "/usr/arm-none-eabi/include/sys/_stdint.h"
 258              		.file 4 "Drivers/CMSIS/Include/core_cm7.h"
 259              		.file 5 "Drivers/CMSIS/Device/ST/STM32H7xx/Include/system_stm32h7xx.h"
 260              		.file 6 "Drivers/CMSIS/Device/ST/STM32H7xx/Include/stm32h743xx.h"
 261              		.file 7 "/usr/arm-none-eabi/include/sys/lock.h"
 262              		.file 8 "/usr/arm-none-eabi/include/sys/_types.h"
 263              		.file 9 "/usr/lib/gcc/arm-none-eabi/8.2.0/include/stddef.h"
 264              		.file 10 "/usr/arm-none-eabi/include/sys/reent.h"
 265              		.file 11 "Drivers/STM32H7xx_HAL_Driver/Inc/stm32h7xx_hal_def.h"
 266              		.file 12 "Drivers/STM32H7xx_HAL_Driver/Inc/stm32h7xx_hal_gpio.h"
 267              		.file 13 "Drivers/STM32H7xx_HAL_Driver/Inc/stm32h7xx_hal_dma.h"
 268              		.file 14 "Drivers/STM32H7xx_HAL_Driver/Inc/stm32h7xx_hal_dac.h"
 269              		.file 15 "Inc/dac.h"
ARM GAS  /tmp/ccSfVELv.s 			page 8

