ARM GAS  /tmp/cc0KkzsK.s 			page 1


   1              		.cpu cortex-m7
   2              		.eabi_attribute 28, 1
   3              		.eabi_attribute 20, 1
   4              		.eabi_attribute 21, 1
   5              		.eabi_attribute 23, 3
   6              		.eabi_attribute 24, 1
   7              		.eabi_attribute 25, 1
   8              		.eabi_attribute 26, 1
   9              		.eabi_attribute 30, 1
  10              		.eabi_attribute 34, 1
  11              		.eabi_attribute 18, 4
  12              		.file	"stm32h7xx_hal_dac.c"
  13              		.text
  14              	.Ltext0:
  15              		.cfi_sections	.debug_frame
  16              		.section	.text.HAL_DAC_MspInit,"ax",%progbits
  17              		.align	1
  18              		.weak	HAL_DAC_MspInit
  19              		.arch armv7e-m
  20              		.syntax unified
  21              		.thumb
  22              		.thumb_func
  23              		.fpu fpv5-d16
  25              	HAL_DAC_MspInit:
  26              	.LVL0:
  27              	.LFB139:
  28              		.file 1 "Drivers/STM32H7xx_HAL_Driver/Src/stm32h7xx_hal_dac.c"
   1:Drivers/STM32H7xx_HAL_Driver/Src/stm32h7xx_hal_dac.c **** /**
   2:Drivers/STM32H7xx_HAL_Driver/Src/stm32h7xx_hal_dac.c ****   ******************************************************************************
   3:Drivers/STM32H7xx_HAL_Driver/Src/stm32h7xx_hal_dac.c ****   * @file    stm32h7xx_hal_dac.c
   4:Drivers/STM32H7xx_HAL_Driver/Src/stm32h7xx_hal_dac.c ****   * @author  MCD Application Team
   5:Drivers/STM32H7xx_HAL_Driver/Src/stm32h7xx_hal_dac.c ****   * @brief   DAC HAL module driver.
   6:Drivers/STM32H7xx_HAL_Driver/Src/stm32h7xx_hal_dac.c ****   *         This file provides firmware functions to manage the following 
   7:Drivers/STM32H7xx_HAL_Driver/Src/stm32h7xx_hal_dac.c ****   *         functionalities of the Digital to Analog Converter (DAC) peripheral:
   8:Drivers/STM32H7xx_HAL_Driver/Src/stm32h7xx_hal_dac.c ****   *           + Initialization and de-initialization functions
   9:Drivers/STM32H7xx_HAL_Driver/Src/stm32h7xx_hal_dac.c ****   *           + IO operation functions
  10:Drivers/STM32H7xx_HAL_Driver/Src/stm32h7xx_hal_dac.c ****   *           + Peripheral Control functions
  11:Drivers/STM32H7xx_HAL_Driver/Src/stm32h7xx_hal_dac.c ****   *           + Peripheral State and Errors functions      
  12:Drivers/STM32H7xx_HAL_Driver/Src/stm32h7xx_hal_dac.c ****   *     
  13:Drivers/STM32H7xx_HAL_Driver/Src/stm32h7xx_hal_dac.c ****   *
  14:Drivers/STM32H7xx_HAL_Driver/Src/stm32h7xx_hal_dac.c ****   @verbatim      
  15:Drivers/STM32H7xx_HAL_Driver/Src/stm32h7xx_hal_dac.c ****   ==============================================================================
  16:Drivers/STM32H7xx_HAL_Driver/Src/stm32h7xx_hal_dac.c ****                       ##### DAC Peripheral features #####
  17:Drivers/STM32H7xx_HAL_Driver/Src/stm32h7xx_hal_dac.c ****   ==============================================================================
  18:Drivers/STM32H7xx_HAL_Driver/Src/stm32h7xx_hal_dac.c ****     [..]        
  19:Drivers/STM32H7xx_HAL_Driver/Src/stm32h7xx_hal_dac.c ****       *** DAC Channels ***
  20:Drivers/STM32H7xx_HAL_Driver/Src/stm32h7xx_hal_dac.c ****       ====================  
  21:Drivers/STM32H7xx_HAL_Driver/Src/stm32h7xx_hal_dac.c ****     [..]  
  22:Drivers/STM32H7xx_HAL_Driver/Src/stm32h7xx_hal_dac.c ****     STM32H7 devices integrate two 12-bit Digital Analog Converters.
  23:Drivers/STM32H7xx_HAL_Driver/Src/stm32h7xx_hal_dac.c **** 
  24:Drivers/STM32H7xx_HAL_Driver/Src/stm32h7xx_hal_dac.c ****     The 2 converters (i.e. channel1 & channel2) can be used independently or simultaneously (dual m
  25:Drivers/STM32H7xx_HAL_Driver/Src/stm32h7xx_hal_dac.c ****       (#) DAC channel1 with DAC_OUT1 (PA4) as output or connected to on-chip 
  26:Drivers/STM32H7xx_HAL_Driver/Src/stm32h7xx_hal_dac.c ****           peripherals (ex. OPAMPs, comparators).
  27:Drivers/STM32H7xx_HAL_Driver/Src/stm32h7xx_hal_dac.c ****       (#) DAC channel2 with DAC_OUT2 (PA5) as output or connected to on-chip 
  28:Drivers/STM32H7xx_HAL_Driver/Src/stm32h7xx_hal_dac.c ****           peripherals (ex. OPAMPs, comparators).
  29:Drivers/STM32H7xx_HAL_Driver/Src/stm32h7xx_hal_dac.c ****       
  30:Drivers/STM32H7xx_HAL_Driver/Src/stm32h7xx_hal_dac.c ****       *** DAC Triggers ***
ARM GAS  /tmp/cc0KkzsK.s 			page 2


  31:Drivers/STM32H7xx_HAL_Driver/Src/stm32h7xx_hal_dac.c ****       ====================
  32:Drivers/STM32H7xx_HAL_Driver/Src/stm32h7xx_hal_dac.c ****     [..]
  33:Drivers/STM32H7xx_HAL_Driver/Src/stm32h7xx_hal_dac.c ****     Digital to Analog conversion can be non-triggered using DAC_TRIGGER_NONE
  34:Drivers/STM32H7xx_HAL_Driver/Src/stm32h7xx_hal_dac.c ****     and DAC_OUT1/DAC_OUT2 is available once writing to DHRx register. 
  35:Drivers/STM32H7xx_HAL_Driver/Src/stm32h7xx_hal_dac.c ****     [..] 
  36:Drivers/STM32H7xx_HAL_Driver/Src/stm32h7xx_hal_dac.c ****     Digital to Analog conversion can be triggered by:
  37:Drivers/STM32H7xx_HAL_Driver/Src/stm32h7xx_hal_dac.c ****       (#) External event: EXTI Line 9 (any GPIOx_PIN_9) using DAC_TRIGGER_EXT_IT9.
  38:Drivers/STM32H7xx_HAL_Driver/Src/stm32h7xx_hal_dac.c ****           The used pin (GPIOx_PIN_9) must be configured in input mode.
  39:Drivers/STM32H7xx_HAL_Driver/Src/stm32h7xx_hal_dac.c ****   
  40:Drivers/STM32H7xx_HAL_Driver/Src/stm32h7xx_hal_dac.c ****       
  41:Drivers/STM32H7xx_HAL_Driver/Src/stm32h7xx_hal_dac.c ****       (#) Timers TRGO:TIM1,TIM2,TIM4, TIM5, TIM6, TIM7,TIM8 and TIM15 
  42:Drivers/STM32H7xx_HAL_Driver/Src/stm32h7xx_hal_dac.c ****           (DAC_TRIGGER_T1_TRGO, DAC_TRIGGER_T2_TRGO...)
  43:Drivers/STM32H7xx_HAL_Driver/Src/stm32h7xx_hal_dac.c **** 
  44:Drivers/STM32H7xx_HAL_Driver/Src/stm32h7xx_hal_dac.c ****       (#) Timers TRGO: HRTIM1,LPTIM1,LPTIM2
  45:Drivers/STM32H7xx_HAL_Driver/Src/stm32h7xx_hal_dac.c ****       (DAC_TRIGGER_HR1_TRGO1,DAC_TRIGGER_HR1_TRGO2,DAC_TRIGGER_LP1_OUT,DAC_TRIGGER_LP2_OUT)
  46:Drivers/STM32H7xx_HAL_Driver/Src/stm32h7xx_hal_dac.c ****       (#) Software using DAC_TRIGGER_SOFTWARE
  47:Drivers/STM32H7xx_HAL_Driver/Src/stm32h7xx_hal_dac.c ****   
  48:Drivers/STM32H7xx_HAL_Driver/Src/stm32h7xx_hal_dac.c ****       *** DAC Buffer mode feature ***
  49:Drivers/STM32H7xx_HAL_Driver/Src/stm32h7xx_hal_dac.c ****       =============================== 
  50:Drivers/STM32H7xx_HAL_Driver/Src/stm32h7xx_hal_dac.c ****       [..] 
  51:Drivers/STM32H7xx_HAL_Driver/Src/stm32h7xx_hal_dac.c ****       Each DAC channel integrates an output buffer that can be used to 
  52:Drivers/STM32H7xx_HAL_Driver/Src/stm32h7xx_hal_dac.c ****       reduce the output impedance, and to drive external loads directly
  53:Drivers/STM32H7xx_HAL_Driver/Src/stm32h7xx_hal_dac.c ****       without having to add an external operational amplifier.
  54:Drivers/STM32H7xx_HAL_Driver/Src/stm32h7xx_hal_dac.c ****       To enable, the output buffer use  
  55:Drivers/STM32H7xx_HAL_Driver/Src/stm32h7xx_hal_dac.c ****       sConfig.DAC_OutputBuffer = DAC_OUTPUTBUFFER_ENABLE;
  56:Drivers/STM32H7xx_HAL_Driver/Src/stm32h7xx_hal_dac.c ****       [..]           
  57:Drivers/STM32H7xx_HAL_Driver/Src/stm32h7xx_hal_dac.c ****       (@) Refer to the device datasheet for more details about output 
  58:Drivers/STM32H7xx_HAL_Driver/Src/stm32h7xx_hal_dac.c ****           impedance value with and without output buffer.
  59:Drivers/STM32H7xx_HAL_Driver/Src/stm32h7xx_hal_dac.c **** 
  60:Drivers/STM32H7xx_HAL_Driver/Src/stm32h7xx_hal_dac.c ****       *** DAC connect feature ***
  61:Drivers/STM32H7xx_HAL_Driver/Src/stm32h7xx_hal_dac.c ****       =============================== 
  62:Drivers/STM32H7xx_HAL_Driver/Src/stm32h7xx_hal_dac.c ****       [..] 
  63:Drivers/STM32H7xx_HAL_Driver/Src/stm32h7xx_hal_dac.c ****       Each DAC channel can be connected internally. 
  64:Drivers/STM32H7xx_HAL_Driver/Src/stm32h7xx_hal_dac.c ****       To connect, use
  65:Drivers/STM32H7xx_HAL_Driver/Src/stm32h7xx_hal_dac.c ****       sConfig.DAC_ConnectOnChipPeripheral = DAC_CHIPCONNECT_ENABLE;
  66:Drivers/STM32H7xx_HAL_Driver/Src/stm32h7xx_hal_dac.c ****                                                
  67:Drivers/STM32H7xx_HAL_Driver/Src/stm32h7xx_hal_dac.c ****       *** GPIO configurations guidelines ***
  68:Drivers/STM32H7xx_HAL_Driver/Src/stm32h7xx_hal_dac.c ****       ====================================
  69:Drivers/STM32H7xx_HAL_Driver/Src/stm32h7xx_hal_dac.c ****       [..] 
  70:Drivers/STM32H7xx_HAL_Driver/Src/stm32h7xx_hal_dac.c ****       When a DAC channel is used (ex channel1 on PA4) and the other is not 
  71:Drivers/STM32H7xx_HAL_Driver/Src/stm32h7xx_hal_dac.c ****       (ex channel2 on PA5 is configured in Analog and disabled).
  72:Drivers/STM32H7xx_HAL_Driver/Src/stm32h7xx_hal_dac.c ****       Channel1 may disturb channel2 as coupling effect.
  73:Drivers/STM32H7xx_HAL_Driver/Src/stm32h7xx_hal_dac.c ****       Note that there is no coupling on channel2 as soon as channel2 is turned on.
  74:Drivers/STM32H7xx_HAL_Driver/Src/stm32h7xx_hal_dac.c ****       Coupling on adjacent channel could be avoided as follows:
  75:Drivers/STM32H7xx_HAL_Driver/Src/stm32h7xx_hal_dac.c ****       when unused PA5 is configured as INPUT PULL-UP or DOWN. 
  76:Drivers/STM32H7xx_HAL_Driver/Src/stm32h7xx_hal_dac.c ****       PA5 is configured in ANALOG just before it is turned on.     
  77:Drivers/STM32H7xx_HAL_Driver/Src/stm32h7xx_hal_dac.c ****                                                
  78:Drivers/STM32H7xx_HAL_Driver/Src/stm32h7xx_hal_dac.c ****       *** DAC Sample and Hold feature ***
  79:Drivers/STM32H7xx_HAL_Driver/Src/stm32h7xx_hal_dac.c ****       ===================================
  80:Drivers/STM32H7xx_HAL_Driver/Src/stm32h7xx_hal_dac.c ****       [..] 
  81:Drivers/STM32H7xx_HAL_Driver/Src/stm32h7xx_hal_dac.c ****       For each converter, 2 modes are supported: normal mode and 
  82:Drivers/STM32H7xx_HAL_Driver/Src/stm32h7xx_hal_dac.c ****       "sample and hold" mode (i.e. low power mode).
  83:Drivers/STM32H7xx_HAL_Driver/Src/stm32h7xx_hal_dac.c ****       In the sample and hold mode, the DAC core converts data, then holds the 
  84:Drivers/STM32H7xx_HAL_Driver/Src/stm32h7xx_hal_dac.c ****       converted voltage on a capacitor. When not converting, the DAC cores and 
  85:Drivers/STM32H7xx_HAL_Driver/Src/stm32h7xx_hal_dac.c ****       buffer are completely turned off between samples and the DAC output is 
  86:Drivers/STM32H7xx_HAL_Driver/Src/stm32h7xx_hal_dac.c ****       tri-stated, therefore  reducing the overall power consumption. A new 
  87:Drivers/STM32H7xx_HAL_Driver/Src/stm32h7xx_hal_dac.c ****       stabilization period is needed before each new conversion.
ARM GAS  /tmp/cc0KkzsK.s 			page 3


  88:Drivers/STM32H7xx_HAL_Driver/Src/stm32h7xx_hal_dac.c ****       [..]
  89:Drivers/STM32H7xx_HAL_Driver/Src/stm32h7xx_hal_dac.c ****       The sample and hold allow setting internal or external voltage @
  90:Drivers/STM32H7xx_HAL_Driver/Src/stm32h7xx_hal_dac.c ****       low power consumption cost (output value can be at any given rate either 
  91:Drivers/STM32H7xx_HAL_Driver/Src/stm32h7xx_hal_dac.c ****       by CPU or DMA).
  92:Drivers/STM32H7xx_HAL_Driver/Src/stm32h7xx_hal_dac.c ****       [..]
  93:Drivers/STM32H7xx_HAL_Driver/Src/stm32h7xx_hal_dac.c ****       The Sample and hold block and registers uses either LSI & run in 
  94:Drivers/STM32H7xx_HAL_Driver/Src/stm32h7xx_hal_dac.c ****       several power modes: run mode, sleep mode & stop mode.
  95:Drivers/STM32H7xx_HAL_Driver/Src/stm32h7xx_hal_dac.c ****         
  96:Drivers/STM32H7xx_HAL_Driver/Src/stm32h7xx_hal_dac.c ****       To enable Sample and Hold mode ,enable LSI using HAL_RCC_OscConfig with 
  97:Drivers/STM32H7xx_HAL_Driver/Src/stm32h7xx_hal_dac.c ****     RCC_OSCILLATORTYPE_LSI & RCC_LSI_ON parameters.
  98:Drivers/STM32H7xx_HAL_Driver/Src/stm32h7xx_hal_dac.c **** 
  99:Drivers/STM32H7xx_HAL_Driver/Src/stm32h7xx_hal_dac.c ****       Use DAC_InitStructure.DAC_SampleAndHold = DAC_SAMPLEANDHOLD_ENABLE
 100:Drivers/STM32H7xx_HAL_Driver/Src/stm32h7xx_hal_dac.c ****          & DAC_ChannelConfTypeDef.DAC_SampleAndHoldConfig.DAC_SampleTime,
 101:Drivers/STM32H7xx_HAL_Driver/Src/stm32h7xx_hal_dac.c ****            DAC_HoldTime & DAC_RefreshTime.
 102:Drivers/STM32H7xx_HAL_Driver/Src/stm32h7xx_hal_dac.c ****     
 103:Drivers/STM32H7xx_HAL_Driver/Src/stm32h7xx_hal_dac.c **** 
 104:Drivers/STM32H7xx_HAL_Driver/Src/stm32h7xx_hal_dac.c ****        *** DAC calibration feature ***
 105:Drivers/STM32H7xx_HAL_Driver/Src/stm32h7xx_hal_dac.c ****        =================================== 
 106:Drivers/STM32H7xx_HAL_Driver/Src/stm32h7xx_hal_dac.c ****       [..] 
 107:Drivers/STM32H7xx_HAL_Driver/Src/stm32h7xx_hal_dac.c ****        (#)  The 2 converters (channel1 & channel2) provide calibration capabilities.  
 108:Drivers/STM32H7xx_HAL_Driver/Src/stm32h7xx_hal_dac.c ****        (++) Calibration aims at correcting some offset of output buffer.
 109:Drivers/STM32H7xx_HAL_Driver/Src/stm32h7xx_hal_dac.c ****        (++) The DAC uses either factory calibration settings OR user defined 
 110:Drivers/STM32H7xx_HAL_Driver/Src/stm32h7xx_hal_dac.c ****            calibration (trimming) settings (i.e. trimming mode).
 111:Drivers/STM32H7xx_HAL_Driver/Src/stm32h7xx_hal_dac.c ****        (++) The user defined settings can be figured out using self calibration 
 112:Drivers/STM32H7xx_HAL_Driver/Src/stm32h7xx_hal_dac.c ****            handled by HAL_DACEx_SelfCalibrate.
 113:Drivers/STM32H7xx_HAL_Driver/Src/stm32h7xx_hal_dac.c ****        (++) HAL_DACEx_SelfCalibrate:
 114:Drivers/STM32H7xx_HAL_Driver/Src/stm32h7xx_hal_dac.c ****        (+++) Runs automatically the calibration.
 115:Drivers/STM32H7xx_HAL_Driver/Src/stm32h7xx_hal_dac.c ****        (+++) Enables the user trimming mode
 116:Drivers/STM32H7xx_HAL_Driver/Src/stm32h7xx_hal_dac.c ****        (+++) Updates a structure with trimming values with fresh calibration 
 117:Drivers/STM32H7xx_HAL_Driver/Src/stm32h7xx_hal_dac.c ****             results. 
 118:Drivers/STM32H7xx_HAL_Driver/Src/stm32h7xx_hal_dac.c ****             The user may store the calibration results for larger 
 119:Drivers/STM32H7xx_HAL_Driver/Src/stm32h7xx_hal_dac.c ****             (ex monitoring the trimming as a function of temperature 
 120:Drivers/STM32H7xx_HAL_Driver/Src/stm32h7xx_hal_dac.c ****             for instance)
 121:Drivers/STM32H7xx_HAL_Driver/Src/stm32h7xx_hal_dac.c **** 
 122:Drivers/STM32H7xx_HAL_Driver/Src/stm32h7xx_hal_dac.c ****        *** DAC wave generation feature ***
 123:Drivers/STM32H7xx_HAL_Driver/Src/stm32h7xx_hal_dac.c ****        =================================== 
 124:Drivers/STM32H7xx_HAL_Driver/Src/stm32h7xx_hal_dac.c ****        [..]     
 125:Drivers/STM32H7xx_HAL_Driver/Src/stm32h7xx_hal_dac.c ****        Both DAC channels can be used to generate:
 126:Drivers/STM32H7xx_HAL_Driver/Src/stm32h7xx_hal_dac.c ****          (#) Noise wave 
 127:Drivers/STM32H7xx_HAL_Driver/Src/stm32h7xx_hal_dac.c ****          (#) Triangle wave
 128:Drivers/STM32H7xx_HAL_Driver/Src/stm32h7xx_hal_dac.c ****             
 129:Drivers/STM32H7xx_HAL_Driver/Src/stm32h7xx_hal_dac.c ****        *** DAC data format ***
 130:Drivers/STM32H7xx_HAL_Driver/Src/stm32h7xx_hal_dac.c ****        =======================
 131:Drivers/STM32H7xx_HAL_Driver/Src/stm32h7xx_hal_dac.c ****        [..]   
 132:Drivers/STM32H7xx_HAL_Driver/Src/stm32h7xx_hal_dac.c ****        The DAC data format can be:
 133:Drivers/STM32H7xx_HAL_Driver/Src/stm32h7xx_hal_dac.c ****          (#) 8-bit right alignment using DAC_ALIGN_8B_R
 134:Drivers/STM32H7xx_HAL_Driver/Src/stm32h7xx_hal_dac.c ****          (#) 12-bit left alignment using DAC_ALIGN_12B_L
 135:Drivers/STM32H7xx_HAL_Driver/Src/stm32h7xx_hal_dac.c ****          (#) 12-bit right alignment using DAC_ALIGN_12B_R
 136:Drivers/STM32H7xx_HAL_Driver/Src/stm32h7xx_hal_dac.c ****   
 137:Drivers/STM32H7xx_HAL_Driver/Src/stm32h7xx_hal_dac.c ****        *** DAC data value to voltage correspondence ***  
 138:Drivers/STM32H7xx_HAL_Driver/Src/stm32h7xx_hal_dac.c ****        ================================================ 
 139:Drivers/STM32H7xx_HAL_Driver/Src/stm32h7xx_hal_dac.c ****        [..] 
 140:Drivers/STM32H7xx_HAL_Driver/Src/stm32h7xx_hal_dac.c ****        The analog output voltage on each DAC channel pin is determined
 141:Drivers/STM32H7xx_HAL_Driver/Src/stm32h7xx_hal_dac.c ****        by the following equation: 
 142:Drivers/STM32H7xx_HAL_Driver/Src/stm32h7xx_hal_dac.c ****        [..]
 143:Drivers/STM32H7xx_HAL_Driver/Src/stm32h7xx_hal_dac.c ****        DAC_OUTx = VREF+ * DOR / 4095
 144:Drivers/STM32H7xx_HAL_Driver/Src/stm32h7xx_hal_dac.c ****        (+) with  DOR is the Data Output Register
ARM GAS  /tmp/cc0KkzsK.s 			page 4


 145:Drivers/STM32H7xx_HAL_Driver/Src/stm32h7xx_hal_dac.c ****        [..]
 146:Drivers/STM32H7xx_HAL_Driver/Src/stm32h7xx_hal_dac.c ****           VREF+ is the input voltage reference (refer to the device datasheet)
 147:Drivers/STM32H7xx_HAL_Driver/Src/stm32h7xx_hal_dac.c ****        [..]
 148:Drivers/STM32H7xx_HAL_Driver/Src/stm32h7xx_hal_dac.c ****         e.g. To set DAC_OUT1 to 0.7V:
 149:Drivers/STM32H7xx_HAL_Driver/Src/stm32h7xx_hal_dac.c ****        (+) Assuming that VREF+ = 3.3V, DAC_OUT1 = (3.3 * 868) / 4095 = 0.7V
 150:Drivers/STM32H7xx_HAL_Driver/Src/stm32h7xx_hal_dac.c ****   
 151:Drivers/STM32H7xx_HAL_Driver/Src/stm32h7xx_hal_dac.c ****        *** DMA requests  ***
 152:Drivers/STM32H7xx_HAL_Driver/Src/stm32h7xx_hal_dac.c ****        =====================
 153:Drivers/STM32H7xx_HAL_Driver/Src/stm32h7xx_hal_dac.c ****        [..]    
 154:Drivers/STM32H7xx_HAL_Driver/Src/stm32h7xx_hal_dac.c ****        A DMA request can be generated when an external trigger (but not
 155:Drivers/STM32H7xx_HAL_Driver/Src/stm32h7xx_hal_dac.c ****        a software trigger) occurs if DMA requests are enabled using
 156:Drivers/STM32H7xx_HAL_Driver/Src/stm32h7xx_hal_dac.c ****        HAL_DAC_Start_DMA().
 157:Drivers/STM32H7xx_HAL_Driver/Src/stm32h7xx_hal_dac.c ****        DMA requests are mapped as following:      
 158:Drivers/STM32H7xx_HAL_Driver/Src/stm32h7xx_hal_dac.c ****       (#) DAC channel1: mapped on DMA_REQUEST_DAC1  
 159:Drivers/STM32H7xx_HAL_Driver/Src/stm32h7xx_hal_dac.c ****       (#) DAC channel2: mapped on DMA_REQUEST_DAC2
 160:Drivers/STM32H7xx_HAL_Driver/Src/stm32h7xx_hal_dac.c ****       [..]  
 161:Drivers/STM32H7xx_HAL_Driver/Src/stm32h7xx_hal_dac.c ****     -@- For Dual mode and specific signal (Triangle and noise) generation please 
 162:Drivers/STM32H7xx_HAL_Driver/Src/stm32h7xx_hal_dac.c ****         refer to Extended Features Driver description        
 163:Drivers/STM32H7xx_HAL_Driver/Src/stm32h7xx_hal_dac.c ****       
 164:Drivers/STM32H7xx_HAL_Driver/Src/stm32h7xx_hal_dac.c ****                       ##### How to use this driver #####
 165:Drivers/STM32H7xx_HAL_Driver/Src/stm32h7xx_hal_dac.c ****   ==============================================================================
 166:Drivers/STM32H7xx_HAL_Driver/Src/stm32h7xx_hal_dac.c ****     [..]          
 167:Drivers/STM32H7xx_HAL_Driver/Src/stm32h7xx_hal_dac.c ****       (+) DAC APB clock must be enabled to get write access to DAC
 168:Drivers/STM32H7xx_HAL_Driver/Src/stm32h7xx_hal_dac.c ****           registers using HAL_DAC_Init()
 169:Drivers/STM32H7xx_HAL_Driver/Src/stm32h7xx_hal_dac.c ****       (+) Configure DAC_OUTx (DAC_OUT1: PA4, DAC_OUT2: PA5) in analog mode.
 170:Drivers/STM32H7xx_HAL_Driver/Src/stm32h7xx_hal_dac.c ****       (+) Configure the DAC channel using HAL_DAC_ConfigChannel() function.
 171:Drivers/STM32H7xx_HAL_Driver/Src/stm32h7xx_hal_dac.c ****       (+) Enable the DAC channel using HAL_DAC_Start() or HAL_DAC_Start_DMA() functions.
 172:Drivers/STM32H7xx_HAL_Driver/Src/stm32h7xx_hal_dac.c **** 
 173:Drivers/STM32H7xx_HAL_Driver/Src/stm32h7xx_hal_dac.c ****      *** Calibration mode IO operation ***
 174:Drivers/STM32H7xx_HAL_Driver/Src/stm32h7xx_hal_dac.c ****      ======================================
 175:Drivers/STM32H7xx_HAL_Driver/Src/stm32h7xx_hal_dac.c ****      [..]    
 176:Drivers/STM32H7xx_HAL_Driver/Src/stm32h7xx_hal_dac.c ****        (+) Retrieve the factory trimming (calibration settings) using HAL_DACEx_GetTrimOffset()
 177:Drivers/STM32H7xx_HAL_Driver/Src/stm32h7xx_hal_dac.c ****        (+) Run the calibration using HAL_DACEx_SelfCalibrate() 
 178:Drivers/STM32H7xx_HAL_Driver/Src/stm32h7xx_hal_dac.c ****        (+) Update the trimming while DAC running using HAL_DACEx_SetUserTrimming()
 179:Drivers/STM32H7xx_HAL_Driver/Src/stm32h7xx_hal_dac.c **** 
 180:Drivers/STM32H7xx_HAL_Driver/Src/stm32h7xx_hal_dac.c ****      *** Polling mode IO operation ***
 181:Drivers/STM32H7xx_HAL_Driver/Src/stm32h7xx_hal_dac.c ****      =================================
 182:Drivers/STM32H7xx_HAL_Driver/Src/stm32h7xx_hal_dac.c ****      [..]    
 183:Drivers/STM32H7xx_HAL_Driver/Src/stm32h7xx_hal_dac.c ****        (+) Start the DAC peripheral using HAL_DAC_Start() 
 184:Drivers/STM32H7xx_HAL_Driver/Src/stm32h7xx_hal_dac.c ****        (+) To read the DAC last data output value, use the HAL_DAC_GetValue() function.
 185:Drivers/STM32H7xx_HAL_Driver/Src/stm32h7xx_hal_dac.c ****        (+) Stop the DAC peripheral using HAL_DAC_Stop()
 186:Drivers/STM32H7xx_HAL_Driver/Src/stm32h7xx_hal_dac.c ****        
 187:Drivers/STM32H7xx_HAL_Driver/Src/stm32h7xx_hal_dac.c ****      *** DMA mode IO operation ***    
 188:Drivers/STM32H7xx_HAL_Driver/Src/stm32h7xx_hal_dac.c ****      ==============================
 189:Drivers/STM32H7xx_HAL_Driver/Src/stm32h7xx_hal_dac.c ****      [..]    
 190:Drivers/STM32H7xx_HAL_Driver/Src/stm32h7xx_hal_dac.c ****        (+) Start the DAC peripheral using HAL_DAC_Start_DMA(), at this stage the user specify the l
 191:Drivers/STM32H7xx_HAL_Driver/Src/stm32h7xx_hal_dac.c ****            of data to be transferred at each end of conversion.
 192:Drivers/STM32H7xx_HAL_Driver/Src/stm32h7xx_hal_dac.c ****        (+) At the middle of data transfer HAL_DAC_ConvHalfCpltCallbackCh1()or HAL_DACEx_ConvHalfCpl
 193:Drivers/STM32H7xx_HAL_Driver/Src/stm32h7xx_hal_dac.c ****            function is executed and user can add his own code by customization of function pointer 
 194:Drivers/STM32H7xx_HAL_Driver/Src/stm32h7xx_hal_dac.c ****            HAL_DAC_ConvHalfCpltCallbackCh1() or HAL_DACEx_ConvHalfCpltCallbackCh2().
 195:Drivers/STM32H7xx_HAL_Driver/Src/stm32h7xx_hal_dac.c ****        (+) At The end of data transfer HAL_DAC_ConvCpltCallbackCh1()or HAL_DACEx_ConvHalfCpltCallba
 196:Drivers/STM32H7xx_HAL_Driver/Src/stm32h7xx_hal_dac.c ****            function is executed and user can add his own code by customization of function pointer 
 197:Drivers/STM32H7xx_HAL_Driver/Src/stm32h7xx_hal_dac.c ****            HAL_DAC_ConvCpltCallbackCh1() or HAL_DACEx_ConvHalfCpltCallbackCh2().
 198:Drivers/STM32H7xx_HAL_Driver/Src/stm32h7xx_hal_dac.c ****        (+) In case of transfer Error, HAL_DAC_ErrorCallbackCh1() function is executed and user can 
 199:Drivers/STM32H7xx_HAL_Driver/Src/stm32h7xx_hal_dac.c ****             add his own code by customization of function pointer HAL_DAC_ErrorCallbackCh1.
 200:Drivers/STM32H7xx_HAL_Driver/Src/stm32h7xx_hal_dac.c ****        (+) In case of DMA underrun, DAC interruption triggers and execute internal function HAL_DAC
 201:Drivers/STM32H7xx_HAL_Driver/Src/stm32h7xx_hal_dac.c ****            HAL_DAC_DMAUnderrunCallbackCh1()or HAL_DACEx_DMAUnderrunCallbackCh2()  
ARM GAS  /tmp/cc0KkzsK.s 			page 5


 202:Drivers/STM32H7xx_HAL_Driver/Src/stm32h7xx_hal_dac.c ****            function is executed and user can add his own code by customization of function pointer 
 203:Drivers/STM32H7xx_HAL_Driver/Src/stm32h7xx_hal_dac.c ****            HAL_DAC_DMAUnderrunCallbackCh1() or HAL_DACEx_DMAUnderrunCallbackCh2()and
 204:Drivers/STM32H7xx_HAL_Driver/Src/stm32h7xx_hal_dac.c ****            add his own code by customization of function pointer HAL_DAC_ErrorCallbackCh1().
 205:Drivers/STM32H7xx_HAL_Driver/Src/stm32h7xx_hal_dac.c ****        (+) Stop the DAC peripheral using HAL_DAC_Stop_DMA()
 206:Drivers/STM32H7xx_HAL_Driver/Src/stm32h7xx_hal_dac.c ****                     
 207:Drivers/STM32H7xx_HAL_Driver/Src/stm32h7xx_hal_dac.c ****      *** DAC HAL driver macros list ***
 208:Drivers/STM32H7xx_HAL_Driver/Src/stm32h7xx_hal_dac.c ****      ============================================= 
 209:Drivers/STM32H7xx_HAL_Driver/Src/stm32h7xx_hal_dac.c ****      [..]
 210:Drivers/STM32H7xx_HAL_Driver/Src/stm32h7xx_hal_dac.c ****        Below the list of most used macros in DAC HAL driver.
 211:Drivers/STM32H7xx_HAL_Driver/Src/stm32h7xx_hal_dac.c ****        
 212:Drivers/STM32H7xx_HAL_Driver/Src/stm32h7xx_hal_dac.c ****       (+) __HAL_DAC_ENABLE : Enable the DAC peripheral
 213:Drivers/STM32H7xx_HAL_Driver/Src/stm32h7xx_hal_dac.c ****       (+) __HAL_DAC_DISABLE : Disable the DAC peripheral
 214:Drivers/STM32H7xx_HAL_Driver/Src/stm32h7xx_hal_dac.c ****       (+) __HAL_DAC_CLEAR_FLAG: Clear the DAC's pending flags
 215:Drivers/STM32H7xx_HAL_Driver/Src/stm32h7xx_hal_dac.c ****       (+) __HAL_DAC_GET_FLAG: Get the selected DAC's flag status
 216:Drivers/STM32H7xx_HAL_Driver/Src/stm32h7xx_hal_dac.c ****       
 217:Drivers/STM32H7xx_HAL_Driver/Src/stm32h7xx_hal_dac.c ****      [..]
 218:Drivers/STM32H7xx_HAL_Driver/Src/stm32h7xx_hal_dac.c ****       (@) You can refer to the DAC HAL driver header file for more useful macros  
 219:Drivers/STM32H7xx_HAL_Driver/Src/stm32h7xx_hal_dac.c ****    
 220:Drivers/STM32H7xx_HAL_Driver/Src/stm32h7xx_hal_dac.c ****  @endverbatim    
 221:Drivers/STM32H7xx_HAL_Driver/Src/stm32h7xx_hal_dac.c ****   ******************************************************************************
 222:Drivers/STM32H7xx_HAL_Driver/Src/stm32h7xx_hal_dac.c ****   * @attention
 223:Drivers/STM32H7xx_HAL_Driver/Src/stm32h7xx_hal_dac.c ****   *
 224:Drivers/STM32H7xx_HAL_Driver/Src/stm32h7xx_hal_dac.c ****   * <h2><center>&copy; COPYRIGHT(c) 2017 STMicroelectronics</center></h2>
 225:Drivers/STM32H7xx_HAL_Driver/Src/stm32h7xx_hal_dac.c ****   *
 226:Drivers/STM32H7xx_HAL_Driver/Src/stm32h7xx_hal_dac.c ****   * Redistribution and use in source and binary forms, with or without modification,
 227:Drivers/STM32H7xx_HAL_Driver/Src/stm32h7xx_hal_dac.c ****   * are permitted provided that the following conditions are met:
 228:Drivers/STM32H7xx_HAL_Driver/Src/stm32h7xx_hal_dac.c ****   *   1. Redistributions of source code must retain the above copyright notice,
 229:Drivers/STM32H7xx_HAL_Driver/Src/stm32h7xx_hal_dac.c ****   *      this list of conditions and the following disclaimer.
 230:Drivers/STM32H7xx_HAL_Driver/Src/stm32h7xx_hal_dac.c ****   *   2. Redistributions in binary form must reproduce the above copyright notice,
 231:Drivers/STM32H7xx_HAL_Driver/Src/stm32h7xx_hal_dac.c ****   *      this list of conditions and the following disclaimer in the documentation
 232:Drivers/STM32H7xx_HAL_Driver/Src/stm32h7xx_hal_dac.c ****   *      and/or other materials provided with the distribution.
 233:Drivers/STM32H7xx_HAL_Driver/Src/stm32h7xx_hal_dac.c ****   *   3. Neither the name of STMicroelectronics nor the names of its contributors
 234:Drivers/STM32H7xx_HAL_Driver/Src/stm32h7xx_hal_dac.c ****   *      may be used to endorse or promote products derived from this software
 235:Drivers/STM32H7xx_HAL_Driver/Src/stm32h7xx_hal_dac.c ****   *      without specific prior written permission.
 236:Drivers/STM32H7xx_HAL_Driver/Src/stm32h7xx_hal_dac.c ****   *
 237:Drivers/STM32H7xx_HAL_Driver/Src/stm32h7xx_hal_dac.c ****   * THIS SOFTWARE IS PROVIDED BY THE COPYRIGHT HOLDERS AND CONTRIBUTORS "AS IS"
 238:Drivers/STM32H7xx_HAL_Driver/Src/stm32h7xx_hal_dac.c ****   * AND ANY EXPRESS OR IMPLIED WARRANTIES, INCLUDING, BUT NOT LIMITED TO, THE
 239:Drivers/STM32H7xx_HAL_Driver/Src/stm32h7xx_hal_dac.c ****   * IMPLIED WARRANTIES OF MERCHANTABILITY AND FITNESS FOR A PARTICULAR PURPOSE ARE
 240:Drivers/STM32H7xx_HAL_Driver/Src/stm32h7xx_hal_dac.c ****   * DISCLAIMED. IN NO EVENT SHALL THE COPYRIGHT HOLDER OR CONTRIBUTORS BE LIABLE
 241:Drivers/STM32H7xx_HAL_Driver/Src/stm32h7xx_hal_dac.c ****   * FOR ANY DIRECT, INDIRECT, INCIDENTAL, SPECIAL, EXEMPLARY, OR CONSEQUENTIAL
 242:Drivers/STM32H7xx_HAL_Driver/Src/stm32h7xx_hal_dac.c ****   * DAMAGES (INCLUDING, BUT NOT LIMITED TO, PROCUREMENT OF SUBSTITUTE GOODS OR
 243:Drivers/STM32H7xx_HAL_Driver/Src/stm32h7xx_hal_dac.c ****   * SERVICES; LOSS OF USE, DATA, OR PROFITS; OR BUSINESS INTERRUPTION) HOWEVER
 244:Drivers/STM32H7xx_HAL_Driver/Src/stm32h7xx_hal_dac.c ****   * CAUSED AND ON ANY THEORY OF LIABILITY, WHETHER IN CONTRACT, STRICT LIABILITY,
 245:Drivers/STM32H7xx_HAL_Driver/Src/stm32h7xx_hal_dac.c ****   * OR TORT (INCLUDING NEGLIGENCE OR OTHERWISE) ARISING IN ANY WAY OUT OF THE USE
 246:Drivers/STM32H7xx_HAL_Driver/Src/stm32h7xx_hal_dac.c ****   * OF THIS SOFTWARE, EVEN IF ADVISED OF THE POSSIBILITY OF SUCH DAMAGE.
 247:Drivers/STM32H7xx_HAL_Driver/Src/stm32h7xx_hal_dac.c ****   *
 248:Drivers/STM32H7xx_HAL_Driver/Src/stm32h7xx_hal_dac.c ****   ******************************************************************************
 249:Drivers/STM32H7xx_HAL_Driver/Src/stm32h7xx_hal_dac.c ****   */ 
 250:Drivers/STM32H7xx_HAL_Driver/Src/stm32h7xx_hal_dac.c **** 
 251:Drivers/STM32H7xx_HAL_Driver/Src/stm32h7xx_hal_dac.c **** 
 252:Drivers/STM32H7xx_HAL_Driver/Src/stm32h7xx_hal_dac.c **** /* Includes ------------------------------------------------------------------*/
 253:Drivers/STM32H7xx_HAL_Driver/Src/stm32h7xx_hal_dac.c **** #include "stm32h7xx_hal.h"
 254:Drivers/STM32H7xx_HAL_Driver/Src/stm32h7xx_hal_dac.c **** 
 255:Drivers/STM32H7xx_HAL_Driver/Src/stm32h7xx_hal_dac.c **** /** @addtogroup STM32H7xx_HAL_Driver
 256:Drivers/STM32H7xx_HAL_Driver/Src/stm32h7xx_hal_dac.c ****   * @{
 257:Drivers/STM32H7xx_HAL_Driver/Src/stm32h7xx_hal_dac.c ****   */
 258:Drivers/STM32H7xx_HAL_Driver/Src/stm32h7xx_hal_dac.c **** 
ARM GAS  /tmp/cc0KkzsK.s 			page 6


 259:Drivers/STM32H7xx_HAL_Driver/Src/stm32h7xx_hal_dac.c **** /** @defgroup DAC DAC 
 260:Drivers/STM32H7xx_HAL_Driver/Src/stm32h7xx_hal_dac.c ****   * @brief DAC driver modules
 261:Drivers/STM32H7xx_HAL_Driver/Src/stm32h7xx_hal_dac.c ****   * @{
 262:Drivers/STM32H7xx_HAL_Driver/Src/stm32h7xx_hal_dac.c ****   */ 
 263:Drivers/STM32H7xx_HAL_Driver/Src/stm32h7xx_hal_dac.c **** 
 264:Drivers/STM32H7xx_HAL_Driver/Src/stm32h7xx_hal_dac.c **** #ifdef HAL_DAC_MODULE_ENABLED
 265:Drivers/STM32H7xx_HAL_Driver/Src/stm32h7xx_hal_dac.c **** 
 266:Drivers/STM32H7xx_HAL_Driver/Src/stm32h7xx_hal_dac.c **** /* Private typedef -----------------------------------------------------------*/
 267:Drivers/STM32H7xx_HAL_Driver/Src/stm32h7xx_hal_dac.c **** /* Private define ------------------------------------------------------------*/
 268:Drivers/STM32H7xx_HAL_Driver/Src/stm32h7xx_hal_dac.c **** /* Private constants ---------------------------------------------------------*/
 269:Drivers/STM32H7xx_HAL_Driver/Src/stm32h7xx_hal_dac.c **** /** @addtogroup DAC_Private_Constants DAC Private Constants
 270:Drivers/STM32H7xx_HAL_Driver/Src/stm32h7xx_hal_dac.c ****   * @{
 271:Drivers/STM32H7xx_HAL_Driver/Src/stm32h7xx_hal_dac.c ****   */
 272:Drivers/STM32H7xx_HAL_Driver/Src/stm32h7xx_hal_dac.c **** #define TIMEOUT_DAC_CALIBCONFIG    ((uint32_t)1)  /* 1ms                  */
 273:Drivers/STM32H7xx_HAL_Driver/Src/stm32h7xx_hal_dac.c **** 
 274:Drivers/STM32H7xx_HAL_Driver/Src/stm32h7xx_hal_dac.c **** /* Private macro -------------------------------------------------------------*/
 275:Drivers/STM32H7xx_HAL_Driver/Src/stm32h7xx_hal_dac.c **** /* Private variables ---------------------------------------------------------*/
 276:Drivers/STM32H7xx_HAL_Driver/Src/stm32h7xx_hal_dac.c **** /* Private function prototypes -----------------------------------------------*/
 277:Drivers/STM32H7xx_HAL_Driver/Src/stm32h7xx_hal_dac.c **** /** @defgroup DAC_Private_Functions DAC Private Functions
 278:Drivers/STM32H7xx_HAL_Driver/Src/stm32h7xx_hal_dac.c ****   * @{
 279:Drivers/STM32H7xx_HAL_Driver/Src/stm32h7xx_hal_dac.c ****   */
 280:Drivers/STM32H7xx_HAL_Driver/Src/stm32h7xx_hal_dac.c **** static void DAC_DMAConvCpltCh1(DMA_HandleTypeDef *hdma);
 281:Drivers/STM32H7xx_HAL_Driver/Src/stm32h7xx_hal_dac.c **** static void DAC_DMAErrorCh1(DMA_HandleTypeDef *hdma);
 282:Drivers/STM32H7xx_HAL_Driver/Src/stm32h7xx_hal_dac.c **** static void DAC_DMAHalfConvCpltCh1(DMA_HandleTypeDef *hdma); 
 283:Drivers/STM32H7xx_HAL_Driver/Src/stm32h7xx_hal_dac.c **** 
 284:Drivers/STM32H7xx_HAL_Driver/Src/stm32h7xx_hal_dac.c **** /**
 285:Drivers/STM32H7xx_HAL_Driver/Src/stm32h7xx_hal_dac.c ****   * @}
 286:Drivers/STM32H7xx_HAL_Driver/Src/stm32h7xx_hal_dac.c ****   */
 287:Drivers/STM32H7xx_HAL_Driver/Src/stm32h7xx_hal_dac.c **** /* Exported functions ---------------------------------------------------------*/
 288:Drivers/STM32H7xx_HAL_Driver/Src/stm32h7xx_hal_dac.c **** 
 289:Drivers/STM32H7xx_HAL_Driver/Src/stm32h7xx_hal_dac.c **** /** @defgroup DAC_Exported_Functions DAC Exported Functions
 290:Drivers/STM32H7xx_HAL_Driver/Src/stm32h7xx_hal_dac.c ****   * @{
 291:Drivers/STM32H7xx_HAL_Driver/Src/stm32h7xx_hal_dac.c ****   */
 292:Drivers/STM32H7xx_HAL_Driver/Src/stm32h7xx_hal_dac.c **** 
 293:Drivers/STM32H7xx_HAL_Driver/Src/stm32h7xx_hal_dac.c **** /** @defgroup DAC_Exported_Functions_Group1 Initialization and de-initialization functions 
 294:Drivers/STM32H7xx_HAL_Driver/Src/stm32h7xx_hal_dac.c ****  *  @brief    Initialization and Configuration functions 
 295:Drivers/STM32H7xx_HAL_Driver/Src/stm32h7xx_hal_dac.c ****  *
 296:Drivers/STM32H7xx_HAL_Driver/Src/stm32h7xx_hal_dac.c **** @verbatim    
 297:Drivers/STM32H7xx_HAL_Driver/Src/stm32h7xx_hal_dac.c ****   ==============================================================================
 298:Drivers/STM32H7xx_HAL_Driver/Src/stm32h7xx_hal_dac.c ****               ##### Initialization and de-initialization functions #####
 299:Drivers/STM32H7xx_HAL_Driver/Src/stm32h7xx_hal_dac.c ****   ==============================================================================
 300:Drivers/STM32H7xx_HAL_Driver/Src/stm32h7xx_hal_dac.c ****     [..]  This section provides functions allowing to:
 301:Drivers/STM32H7xx_HAL_Driver/Src/stm32h7xx_hal_dac.c ****       (+) Initialize and configure the DAC. 
 302:Drivers/STM32H7xx_HAL_Driver/Src/stm32h7xx_hal_dac.c ****       (+) De-initialize the DAC. 
 303:Drivers/STM32H7xx_HAL_Driver/Src/stm32h7xx_hal_dac.c ****          
 304:Drivers/STM32H7xx_HAL_Driver/Src/stm32h7xx_hal_dac.c **** @endverbatim
 305:Drivers/STM32H7xx_HAL_Driver/Src/stm32h7xx_hal_dac.c ****   * @{
 306:Drivers/STM32H7xx_HAL_Driver/Src/stm32h7xx_hal_dac.c ****   */
 307:Drivers/STM32H7xx_HAL_Driver/Src/stm32h7xx_hal_dac.c **** 
 308:Drivers/STM32H7xx_HAL_Driver/Src/stm32h7xx_hal_dac.c **** /**
 309:Drivers/STM32H7xx_HAL_Driver/Src/stm32h7xx_hal_dac.c ****   * @brief  Initialize the DAC peripheral according to the specified parameters
 310:Drivers/STM32H7xx_HAL_Driver/Src/stm32h7xx_hal_dac.c ****   *         in the DAC_InitStruct and initialize the associated handle.
 311:Drivers/STM32H7xx_HAL_Driver/Src/stm32h7xx_hal_dac.c ****   * @param  hdac: pointer to a DAC_HandleTypeDef structure that contains
 312:Drivers/STM32H7xx_HAL_Driver/Src/stm32h7xx_hal_dac.c ****   *         the configuration information for the specified DAC.
 313:Drivers/STM32H7xx_HAL_Driver/Src/stm32h7xx_hal_dac.c ****   * @retval HAL status
 314:Drivers/STM32H7xx_HAL_Driver/Src/stm32h7xx_hal_dac.c ****   */
 315:Drivers/STM32H7xx_HAL_Driver/Src/stm32h7xx_hal_dac.c **** HAL_StatusTypeDef HAL_DAC_Init(DAC_HandleTypeDef* hdac)
ARM GAS  /tmp/cc0KkzsK.s 			page 7


 316:Drivers/STM32H7xx_HAL_Driver/Src/stm32h7xx_hal_dac.c **** { 
 317:Drivers/STM32H7xx_HAL_Driver/Src/stm32h7xx_hal_dac.c ****   /* Check DAC handle */
 318:Drivers/STM32H7xx_HAL_Driver/Src/stm32h7xx_hal_dac.c ****   if(hdac == NULL)
 319:Drivers/STM32H7xx_HAL_Driver/Src/stm32h7xx_hal_dac.c ****   {
 320:Drivers/STM32H7xx_HAL_Driver/Src/stm32h7xx_hal_dac.c ****      return HAL_ERROR;
 321:Drivers/STM32H7xx_HAL_Driver/Src/stm32h7xx_hal_dac.c ****   }
 322:Drivers/STM32H7xx_HAL_Driver/Src/stm32h7xx_hal_dac.c ****   /* Check the parameters */
 323:Drivers/STM32H7xx_HAL_Driver/Src/stm32h7xx_hal_dac.c ****   assert_param(IS_DAC_ALL_INSTANCE(hdac->Instance));
 324:Drivers/STM32H7xx_HAL_Driver/Src/stm32h7xx_hal_dac.c ****   
 325:Drivers/STM32H7xx_HAL_Driver/Src/stm32h7xx_hal_dac.c ****   if(hdac->State == HAL_DAC_STATE_RESET)
 326:Drivers/STM32H7xx_HAL_Driver/Src/stm32h7xx_hal_dac.c ****   {  
 327:Drivers/STM32H7xx_HAL_Driver/Src/stm32h7xx_hal_dac.c ****   /* Allocate lock resource and initialize it */
 328:Drivers/STM32H7xx_HAL_Driver/Src/stm32h7xx_hal_dac.c ****     hdac->Lock = HAL_UNLOCKED;
 329:Drivers/STM32H7xx_HAL_Driver/Src/stm32h7xx_hal_dac.c ****     /* Init the low level hardware */
 330:Drivers/STM32H7xx_HAL_Driver/Src/stm32h7xx_hal_dac.c ****     HAL_DAC_MspInit(hdac);
 331:Drivers/STM32H7xx_HAL_Driver/Src/stm32h7xx_hal_dac.c ****   }
 332:Drivers/STM32H7xx_HAL_Driver/Src/stm32h7xx_hal_dac.c ****   
 333:Drivers/STM32H7xx_HAL_Driver/Src/stm32h7xx_hal_dac.c ****   /* Initialize the DAC state*/
 334:Drivers/STM32H7xx_HAL_Driver/Src/stm32h7xx_hal_dac.c ****   hdac->State = HAL_DAC_STATE_BUSY;
 335:Drivers/STM32H7xx_HAL_Driver/Src/stm32h7xx_hal_dac.c ****   
 336:Drivers/STM32H7xx_HAL_Driver/Src/stm32h7xx_hal_dac.c ****   /* Set DAC error code to none */
 337:Drivers/STM32H7xx_HAL_Driver/Src/stm32h7xx_hal_dac.c ****   hdac->ErrorCode = HAL_DAC_ERROR_NONE;
 338:Drivers/STM32H7xx_HAL_Driver/Src/stm32h7xx_hal_dac.c ****   
 339:Drivers/STM32H7xx_HAL_Driver/Src/stm32h7xx_hal_dac.c ****   /* Initialize the DAC state*/
 340:Drivers/STM32H7xx_HAL_Driver/Src/stm32h7xx_hal_dac.c ****   hdac->State = HAL_DAC_STATE_READY;
 341:Drivers/STM32H7xx_HAL_Driver/Src/stm32h7xx_hal_dac.c ****   
 342:Drivers/STM32H7xx_HAL_Driver/Src/stm32h7xx_hal_dac.c ****   /* Return function status */
 343:Drivers/STM32H7xx_HAL_Driver/Src/stm32h7xx_hal_dac.c ****   return HAL_OK;
 344:Drivers/STM32H7xx_HAL_Driver/Src/stm32h7xx_hal_dac.c **** }
 345:Drivers/STM32H7xx_HAL_Driver/Src/stm32h7xx_hal_dac.c **** 
 346:Drivers/STM32H7xx_HAL_Driver/Src/stm32h7xx_hal_dac.c **** /**
 347:Drivers/STM32H7xx_HAL_Driver/Src/stm32h7xx_hal_dac.c ****   * @brief  Deinitialize the DAC peripheral registers to their default reset values.
 348:Drivers/STM32H7xx_HAL_Driver/Src/stm32h7xx_hal_dac.c ****   * @param  hdac: pointer to a DAC_HandleTypeDef structure that contains
 349:Drivers/STM32H7xx_HAL_Driver/Src/stm32h7xx_hal_dac.c ****   *         the configuration information for the specified DAC.
 350:Drivers/STM32H7xx_HAL_Driver/Src/stm32h7xx_hal_dac.c ****   * @retval HAL status
 351:Drivers/STM32H7xx_HAL_Driver/Src/stm32h7xx_hal_dac.c ****   */
 352:Drivers/STM32H7xx_HAL_Driver/Src/stm32h7xx_hal_dac.c **** HAL_StatusTypeDef HAL_DAC_DeInit(DAC_HandleTypeDef* hdac)
 353:Drivers/STM32H7xx_HAL_Driver/Src/stm32h7xx_hal_dac.c **** {
 354:Drivers/STM32H7xx_HAL_Driver/Src/stm32h7xx_hal_dac.c ****   /* Check DAC handle */
 355:Drivers/STM32H7xx_HAL_Driver/Src/stm32h7xx_hal_dac.c ****   if(hdac == NULL)
 356:Drivers/STM32H7xx_HAL_Driver/Src/stm32h7xx_hal_dac.c ****   {
 357:Drivers/STM32H7xx_HAL_Driver/Src/stm32h7xx_hal_dac.c ****      return HAL_ERROR;
 358:Drivers/STM32H7xx_HAL_Driver/Src/stm32h7xx_hal_dac.c ****   }
 359:Drivers/STM32H7xx_HAL_Driver/Src/stm32h7xx_hal_dac.c **** 
 360:Drivers/STM32H7xx_HAL_Driver/Src/stm32h7xx_hal_dac.c ****   /* Check the parameters */
 361:Drivers/STM32H7xx_HAL_Driver/Src/stm32h7xx_hal_dac.c ****   assert_param(IS_DAC_ALL_INSTANCE(hdac->Instance));
 362:Drivers/STM32H7xx_HAL_Driver/Src/stm32h7xx_hal_dac.c **** 
 363:Drivers/STM32H7xx_HAL_Driver/Src/stm32h7xx_hal_dac.c ****   /* Change DAC state */
 364:Drivers/STM32H7xx_HAL_Driver/Src/stm32h7xx_hal_dac.c ****   hdac->State = HAL_DAC_STATE_BUSY;
 365:Drivers/STM32H7xx_HAL_Driver/Src/stm32h7xx_hal_dac.c **** 
 366:Drivers/STM32H7xx_HAL_Driver/Src/stm32h7xx_hal_dac.c ****   /* DeInit the low level hardware */
 367:Drivers/STM32H7xx_HAL_Driver/Src/stm32h7xx_hal_dac.c ****   HAL_DAC_MspDeInit(hdac);
 368:Drivers/STM32H7xx_HAL_Driver/Src/stm32h7xx_hal_dac.c **** 
 369:Drivers/STM32H7xx_HAL_Driver/Src/stm32h7xx_hal_dac.c ****   /* Set DAC error code to none */
 370:Drivers/STM32H7xx_HAL_Driver/Src/stm32h7xx_hal_dac.c ****   hdac->ErrorCode = HAL_DAC_ERROR_NONE;
 371:Drivers/STM32H7xx_HAL_Driver/Src/stm32h7xx_hal_dac.c **** 
 372:Drivers/STM32H7xx_HAL_Driver/Src/stm32h7xx_hal_dac.c ****   /* Change DAC state */
ARM GAS  /tmp/cc0KkzsK.s 			page 8


 373:Drivers/STM32H7xx_HAL_Driver/Src/stm32h7xx_hal_dac.c ****   hdac->State = HAL_DAC_STATE_RESET;
 374:Drivers/STM32H7xx_HAL_Driver/Src/stm32h7xx_hal_dac.c **** 
 375:Drivers/STM32H7xx_HAL_Driver/Src/stm32h7xx_hal_dac.c ****   /* Release Lock */
 376:Drivers/STM32H7xx_HAL_Driver/Src/stm32h7xx_hal_dac.c ****   __HAL_UNLOCK(hdac);
 377:Drivers/STM32H7xx_HAL_Driver/Src/stm32h7xx_hal_dac.c **** 
 378:Drivers/STM32H7xx_HAL_Driver/Src/stm32h7xx_hal_dac.c ****   /* Return function status */
 379:Drivers/STM32H7xx_HAL_Driver/Src/stm32h7xx_hal_dac.c ****   return HAL_OK;
 380:Drivers/STM32H7xx_HAL_Driver/Src/stm32h7xx_hal_dac.c **** }
 381:Drivers/STM32H7xx_HAL_Driver/Src/stm32h7xx_hal_dac.c **** 
 382:Drivers/STM32H7xx_HAL_Driver/Src/stm32h7xx_hal_dac.c **** /**
 383:Drivers/STM32H7xx_HAL_Driver/Src/stm32h7xx_hal_dac.c ****   * @brief  Initialize the DAC MSP.
 384:Drivers/STM32H7xx_HAL_Driver/Src/stm32h7xx_hal_dac.c ****   * @param  hdac: pointer to a DAC_HandleTypeDef structure that contains
 385:Drivers/STM32H7xx_HAL_Driver/Src/stm32h7xx_hal_dac.c ****   *         the configuration information for the specified DAC.
 386:Drivers/STM32H7xx_HAL_Driver/Src/stm32h7xx_hal_dac.c ****   * @retval None
 387:Drivers/STM32H7xx_HAL_Driver/Src/stm32h7xx_hal_dac.c ****   */
 388:Drivers/STM32H7xx_HAL_Driver/Src/stm32h7xx_hal_dac.c **** __weak void HAL_DAC_MspInit(DAC_HandleTypeDef* hdac)
 389:Drivers/STM32H7xx_HAL_Driver/Src/stm32h7xx_hal_dac.c **** { 
  29              		.loc 1 389 1 view -0
  30              		.cfi_startproc
  31              		@ args = 0, pretend = 0, frame = 0
  32              		@ frame_needed = 0, uses_anonymous_args = 0
  33              		@ link register save eliminated.
 390:Drivers/STM32H7xx_HAL_Driver/Src/stm32h7xx_hal_dac.c ****    /* Prevent unused argument(s) compilation warning */
 391:Drivers/STM32H7xx_HAL_Driver/Src/stm32h7xx_hal_dac.c ****     UNUSED(hdac);
  34              		.loc 1 391 5 view .LVU1
 392:Drivers/STM32H7xx_HAL_Driver/Src/stm32h7xx_hal_dac.c ****     /* NOTE : This function should not be modified, when the callback is needed,
 393:Drivers/STM32H7xx_HAL_Driver/Src/stm32h7xx_hal_dac.c ****             the HAL_DAC_MspInit could be implemented in the user file
 394:Drivers/STM32H7xx_HAL_Driver/Src/stm32h7xx_hal_dac.c ****    */ 
 395:Drivers/STM32H7xx_HAL_Driver/Src/stm32h7xx_hal_dac.c **** }
  35              		.loc 1 395 1 is_stmt 0 view .LVU2
  36 0000 7047     		bx	lr
  37              		.cfi_endproc
  38              	.LFE139:
  40              		.section	.text.HAL_DAC_Init,"ax",%progbits
  41              		.align	1
  42              		.global	HAL_DAC_Init
  43              		.syntax unified
  44              		.thumb
  45              		.thumb_func
  46              		.fpu fpv5-d16
  48              	HAL_DAC_Init:
  49              	.LVL1:
  50              	.LFB137:
 316:Drivers/STM32H7xx_HAL_Driver/Src/stm32h7xx_hal_dac.c ****   /* Check DAC handle */
  51              		.loc 1 316 1 is_stmt 1 view -0
  52              		.cfi_startproc
  53              		@ args = 0, pretend = 0, frame = 0
  54              		@ frame_needed = 0, uses_anonymous_args = 0
 318:Drivers/STM32H7xx_HAL_Driver/Src/stm32h7xx_hal_dac.c ****   {
  55              		.loc 1 318 3 view .LVU4
 318:Drivers/STM32H7xx_HAL_Driver/Src/stm32h7xx_hal_dac.c ****   {
  56              		.loc 1 318 5 is_stmt 0 view .LVU5
  57 0000 70B1     		cbz	r0, .L5
 316:Drivers/STM32H7xx_HAL_Driver/Src/stm32h7xx_hal_dac.c ****   /* Check DAC handle */
  58              		.loc 1 316 1 view .LVU6
  59 0002 10B5     		push	{r4, lr}
  60              	.LCFI0:
ARM GAS  /tmp/cc0KkzsK.s 			page 9


  61              		.cfi_def_cfa_offset 8
  62              		.cfi_offset 4, -8
  63              		.cfi_offset 14, -4
  64 0004 0446     		mov	r4, r0
 323:Drivers/STM32H7xx_HAL_Driver/Src/stm32h7xx_hal_dac.c ****   
  65              		.loc 1 323 3 is_stmt 1 view .LVU7
 325:Drivers/STM32H7xx_HAL_Driver/Src/stm32h7xx_hal_dac.c ****   {  
  66              		.loc 1 325 3 view .LVU8
 325:Drivers/STM32H7xx_HAL_Driver/Src/stm32h7xx_hal_dac.c ****   {  
  67              		.loc 1 325 10 is_stmt 0 view .LVU9
  68 0006 0379     		ldrb	r3, [r0, #4]	@ zero_extendqisi2
 325:Drivers/STM32H7xx_HAL_Driver/Src/stm32h7xx_hal_dac.c ****   {  
  69              		.loc 1 325 5 view .LVU10
  70 0008 33B1     		cbz	r3, .L10
  71              	.LVL2:
  72              	.L4:
 334:Drivers/STM32H7xx_HAL_Driver/Src/stm32h7xx_hal_dac.c ****   
  73              		.loc 1 334 3 is_stmt 1 view .LVU11
 334:Drivers/STM32H7xx_HAL_Driver/Src/stm32h7xx_hal_dac.c ****   
  74              		.loc 1 334 15 is_stmt 0 view .LVU12
  75 000a 0223     		movs	r3, #2
  76 000c 2371     		strb	r3, [r4, #4]
 337:Drivers/STM32H7xx_HAL_Driver/Src/stm32h7xx_hal_dac.c ****   
  77              		.loc 1 337 3 is_stmt 1 view .LVU13
 337:Drivers/STM32H7xx_HAL_Driver/Src/stm32h7xx_hal_dac.c ****   
  78              		.loc 1 337 19 is_stmt 0 view .LVU14
  79 000e 0020     		movs	r0, #0
  80 0010 2061     		str	r0, [r4, #16]
 340:Drivers/STM32H7xx_HAL_Driver/Src/stm32h7xx_hal_dac.c ****   
  81              		.loc 1 340 3 is_stmt 1 view .LVU15
 340:Drivers/STM32H7xx_HAL_Driver/Src/stm32h7xx_hal_dac.c ****   
  82              		.loc 1 340 15 is_stmt 0 view .LVU16
  83 0012 0123     		movs	r3, #1
  84 0014 2371     		strb	r3, [r4, #4]
 343:Drivers/STM32H7xx_HAL_Driver/Src/stm32h7xx_hal_dac.c **** }
  85              		.loc 1 343 3 is_stmt 1 view .LVU17
 344:Drivers/STM32H7xx_HAL_Driver/Src/stm32h7xx_hal_dac.c **** 
  86              		.loc 1 344 1 is_stmt 0 view .LVU18
  87 0016 10BD     		pop	{r4, pc}
  88              	.LVL3:
  89              	.L10:
 328:Drivers/STM32H7xx_HAL_Driver/Src/stm32h7xx_hal_dac.c ****     /* Init the low level hardware */
  90              		.loc 1 328 5 is_stmt 1 view .LVU19
 328:Drivers/STM32H7xx_HAL_Driver/Src/stm32h7xx_hal_dac.c ****     /* Init the low level hardware */
  91              		.loc 1 328 16 is_stmt 0 view .LVU20
  92 0018 4371     		strb	r3, [r0, #5]
 330:Drivers/STM32H7xx_HAL_Driver/Src/stm32h7xx_hal_dac.c ****   }
  93              		.loc 1 330 5 is_stmt 1 view .LVU21
  94 001a FFF7FEFF 		bl	HAL_DAC_MspInit
  95              	.LVL4:
 330:Drivers/STM32H7xx_HAL_Driver/Src/stm32h7xx_hal_dac.c ****   }
  96              		.loc 1 330 5 is_stmt 0 view .LVU22
  97 001e F4E7     		b	.L4
  98              	.LVL5:
  99              	.L5:
 100              	.LCFI1:
 101              		.cfi_def_cfa_offset 0
ARM GAS  /tmp/cc0KkzsK.s 			page 10


 102              		.cfi_restore 4
 103              		.cfi_restore 14
 320:Drivers/STM32H7xx_HAL_Driver/Src/stm32h7xx_hal_dac.c ****   }
 104              		.loc 1 320 13 view .LVU23
 105 0020 0120     		movs	r0, #1
 106              	.LVL6:
 344:Drivers/STM32H7xx_HAL_Driver/Src/stm32h7xx_hal_dac.c **** 
 107              		.loc 1 344 1 view .LVU24
 108 0022 7047     		bx	lr
 109              		.cfi_endproc
 110              	.LFE137:
 112              		.section	.text.HAL_DAC_MspDeInit,"ax",%progbits
 113              		.align	1
 114              		.weak	HAL_DAC_MspDeInit
 115              		.syntax unified
 116              		.thumb
 117              		.thumb_func
 118              		.fpu fpv5-d16
 120              	HAL_DAC_MspDeInit:
 121              	.LVL7:
 122              	.LFB140:
 396:Drivers/STM32H7xx_HAL_Driver/Src/stm32h7xx_hal_dac.c **** 
 397:Drivers/STM32H7xx_HAL_Driver/Src/stm32h7xx_hal_dac.c **** /**
 398:Drivers/STM32H7xx_HAL_Driver/Src/stm32h7xx_hal_dac.c ****   * @brief  DeInitialize the DAC MSP.
 399:Drivers/STM32H7xx_HAL_Driver/Src/stm32h7xx_hal_dac.c ****   * @param  hdac: pointer to a DAC_HandleTypeDef structure that contains
 400:Drivers/STM32H7xx_HAL_Driver/Src/stm32h7xx_hal_dac.c ****   *         the configuration information for the specified DAC.  
 401:Drivers/STM32H7xx_HAL_Driver/Src/stm32h7xx_hal_dac.c ****   * @retval None
 402:Drivers/STM32H7xx_HAL_Driver/Src/stm32h7xx_hal_dac.c ****   */
 403:Drivers/STM32H7xx_HAL_Driver/Src/stm32h7xx_hal_dac.c **** __weak void HAL_DAC_MspDeInit(DAC_HandleTypeDef* hdac)
 404:Drivers/STM32H7xx_HAL_Driver/Src/stm32h7xx_hal_dac.c **** {
 123              		.loc 1 404 1 is_stmt 1 view -0
 124              		.cfi_startproc
 125              		@ args = 0, pretend = 0, frame = 0
 126              		@ frame_needed = 0, uses_anonymous_args = 0
 127              		@ link register save eliminated.
 405:Drivers/STM32H7xx_HAL_Driver/Src/stm32h7xx_hal_dac.c ****   /* Prevent unused argument(s) compilation warning */
 406:Drivers/STM32H7xx_HAL_Driver/Src/stm32h7xx_hal_dac.c ****     UNUSED(hdac);
 128              		.loc 1 406 5 view .LVU26
 407:Drivers/STM32H7xx_HAL_Driver/Src/stm32h7xx_hal_dac.c ****     /* NOTE : This function should not be modified, when the callback is needed,
 408:Drivers/STM32H7xx_HAL_Driver/Src/stm32h7xx_hal_dac.c ****             the HAL_DAC_MspDeInit could be implemented in the user file
 409:Drivers/STM32H7xx_HAL_Driver/Src/stm32h7xx_hal_dac.c ****    */ 
 410:Drivers/STM32H7xx_HAL_Driver/Src/stm32h7xx_hal_dac.c **** }
 129              		.loc 1 410 1 is_stmt 0 view .LVU27
 130 0000 7047     		bx	lr
 131              		.cfi_endproc
 132              	.LFE140:
 134              		.section	.text.HAL_DAC_DeInit,"ax",%progbits
 135              		.align	1
 136              		.global	HAL_DAC_DeInit
 137              		.syntax unified
 138              		.thumb
 139              		.thumb_func
 140              		.fpu fpv5-d16
 142              	HAL_DAC_DeInit:
 143              	.LVL8:
 144              	.LFB138:
 353:Drivers/STM32H7xx_HAL_Driver/Src/stm32h7xx_hal_dac.c ****   /* Check DAC handle */
ARM GAS  /tmp/cc0KkzsK.s 			page 11


 145              		.loc 1 353 1 is_stmt 1 view -0
 146              		.cfi_startproc
 147              		@ args = 0, pretend = 0, frame = 0
 148              		@ frame_needed = 0, uses_anonymous_args = 0
 355:Drivers/STM32H7xx_HAL_Driver/Src/stm32h7xx_hal_dac.c ****   {
 149              		.loc 1 355 3 view .LVU29
 355:Drivers/STM32H7xx_HAL_Driver/Src/stm32h7xx_hal_dac.c ****   {
 150              		.loc 1 355 5 is_stmt 0 view .LVU30
 151 0000 50B1     		cbz	r0, .L14
 353:Drivers/STM32H7xx_HAL_Driver/Src/stm32h7xx_hal_dac.c ****   /* Check DAC handle */
 152              		.loc 1 353 1 view .LVU31
 153 0002 10B5     		push	{r4, lr}
 154              	.LCFI2:
 155              		.cfi_def_cfa_offset 8
 156              		.cfi_offset 4, -8
 157              		.cfi_offset 14, -4
 158 0004 0446     		mov	r4, r0
 361:Drivers/STM32H7xx_HAL_Driver/Src/stm32h7xx_hal_dac.c **** 
 159              		.loc 1 361 3 is_stmt 1 view .LVU32
 364:Drivers/STM32H7xx_HAL_Driver/Src/stm32h7xx_hal_dac.c **** 
 160              		.loc 1 364 3 view .LVU33
 364:Drivers/STM32H7xx_HAL_Driver/Src/stm32h7xx_hal_dac.c **** 
 161              		.loc 1 364 15 is_stmt 0 view .LVU34
 162 0006 0223     		movs	r3, #2
 163 0008 0371     		strb	r3, [r0, #4]
 367:Drivers/STM32H7xx_HAL_Driver/Src/stm32h7xx_hal_dac.c **** 
 164              		.loc 1 367 3 is_stmt 1 view .LVU35
 165 000a FFF7FEFF 		bl	HAL_DAC_MspDeInit
 166              	.LVL9:
 370:Drivers/STM32H7xx_HAL_Driver/Src/stm32h7xx_hal_dac.c **** 
 167              		.loc 1 370 3 view .LVU36
 370:Drivers/STM32H7xx_HAL_Driver/Src/stm32h7xx_hal_dac.c **** 
 168              		.loc 1 370 19 is_stmt 0 view .LVU37
 169 000e 0020     		movs	r0, #0
 170 0010 2061     		str	r0, [r4, #16]
 373:Drivers/STM32H7xx_HAL_Driver/Src/stm32h7xx_hal_dac.c **** 
 171              		.loc 1 373 3 is_stmt 1 view .LVU38
 373:Drivers/STM32H7xx_HAL_Driver/Src/stm32h7xx_hal_dac.c **** 
 172              		.loc 1 373 15 is_stmt 0 view .LVU39
 173 0012 2071     		strb	r0, [r4, #4]
 376:Drivers/STM32H7xx_HAL_Driver/Src/stm32h7xx_hal_dac.c **** 
 174              		.loc 1 376 3 is_stmt 1 view .LVU40
 376:Drivers/STM32H7xx_HAL_Driver/Src/stm32h7xx_hal_dac.c **** 
 175              		.loc 1 376 3 view .LVU41
 176 0014 6071     		strb	r0, [r4, #5]
 379:Drivers/STM32H7xx_HAL_Driver/Src/stm32h7xx_hal_dac.c **** }
 177              		.loc 1 379 3 view .LVU42
 380:Drivers/STM32H7xx_HAL_Driver/Src/stm32h7xx_hal_dac.c **** 
 178              		.loc 1 380 1 is_stmt 0 view .LVU43
 179 0016 10BD     		pop	{r4, pc}
 180              	.LVL10:
 181              	.L14:
 182              	.LCFI3:
 183              		.cfi_def_cfa_offset 0
 184              		.cfi_restore 4
 185              		.cfi_restore 14
 357:Drivers/STM32H7xx_HAL_Driver/Src/stm32h7xx_hal_dac.c ****   }
ARM GAS  /tmp/cc0KkzsK.s 			page 12


 186              		.loc 1 357 13 view .LVU44
 187 0018 0120     		movs	r0, #1
 188              	.LVL11:
 380:Drivers/STM32H7xx_HAL_Driver/Src/stm32h7xx_hal_dac.c **** 
 189              		.loc 1 380 1 view .LVU45
 190 001a 7047     		bx	lr
 191              		.cfi_endproc
 192              	.LFE138:
 194              		.section	.text.HAL_DAC_Start,"ax",%progbits
 195              		.align	1
 196              		.global	HAL_DAC_Start
 197              		.syntax unified
 198              		.thumb
 199              		.thumb_func
 200              		.fpu fpv5-d16
 202              	HAL_DAC_Start:
 203              	.LVL12:
 204              	.LFB141:
 411:Drivers/STM32H7xx_HAL_Driver/Src/stm32h7xx_hal_dac.c **** 
 412:Drivers/STM32H7xx_HAL_Driver/Src/stm32h7xx_hal_dac.c **** /**
 413:Drivers/STM32H7xx_HAL_Driver/Src/stm32h7xx_hal_dac.c ****   * @}
 414:Drivers/STM32H7xx_HAL_Driver/Src/stm32h7xx_hal_dac.c ****   */
 415:Drivers/STM32H7xx_HAL_Driver/Src/stm32h7xx_hal_dac.c **** 
 416:Drivers/STM32H7xx_HAL_Driver/Src/stm32h7xx_hal_dac.c **** /** @defgroup DAC_Exported_Functions_Group2 IO operation functions
 417:Drivers/STM32H7xx_HAL_Driver/Src/stm32h7xx_hal_dac.c ****  *  @brief    IO operation functions 
 418:Drivers/STM32H7xx_HAL_Driver/Src/stm32h7xx_hal_dac.c ****  *
 419:Drivers/STM32H7xx_HAL_Driver/Src/stm32h7xx_hal_dac.c **** @verbatim   
 420:Drivers/STM32H7xx_HAL_Driver/Src/stm32h7xx_hal_dac.c ****   ==============================================================================
 421:Drivers/STM32H7xx_HAL_Driver/Src/stm32h7xx_hal_dac.c ****              ##### IO operation functions #####
 422:Drivers/STM32H7xx_HAL_Driver/Src/stm32h7xx_hal_dac.c ****   ==============================================================================  
 423:Drivers/STM32H7xx_HAL_Driver/Src/stm32h7xx_hal_dac.c ****     [..]  This section provides functions allowing to:
 424:Drivers/STM32H7xx_HAL_Driver/Src/stm32h7xx_hal_dac.c ****       (+) Start conversion.
 425:Drivers/STM32H7xx_HAL_Driver/Src/stm32h7xx_hal_dac.c ****       (+) Stop conversion.
 426:Drivers/STM32H7xx_HAL_Driver/Src/stm32h7xx_hal_dac.c ****       (+) Start conversion and enable DMA transfer.
 427:Drivers/STM32H7xx_HAL_Driver/Src/stm32h7xx_hal_dac.c ****       (+) Stop conversion and disable DMA transfer.
 428:Drivers/STM32H7xx_HAL_Driver/Src/stm32h7xx_hal_dac.c ****       (+) Set the specified data holding register value for DAC channel.
 429:Drivers/STM32H7xx_HAL_Driver/Src/stm32h7xx_hal_dac.c ****       
 430:Drivers/STM32H7xx_HAL_Driver/Src/stm32h7xx_hal_dac.c ****                      
 431:Drivers/STM32H7xx_HAL_Driver/Src/stm32h7xx_hal_dac.c **** @endverbatim
 432:Drivers/STM32H7xx_HAL_Driver/Src/stm32h7xx_hal_dac.c ****   * @{
 433:Drivers/STM32H7xx_HAL_Driver/Src/stm32h7xx_hal_dac.c ****   */
 434:Drivers/STM32H7xx_HAL_Driver/Src/stm32h7xx_hal_dac.c **** 
 435:Drivers/STM32H7xx_HAL_Driver/Src/stm32h7xx_hal_dac.c **** /**
 436:Drivers/STM32H7xx_HAL_Driver/Src/stm32h7xx_hal_dac.c ****   * @brief  Enable DAC and start conversion of channel.
 437:Drivers/STM32H7xx_HAL_Driver/Src/stm32h7xx_hal_dac.c ****   * @param  hdac: pointer to a DAC_HandleTypeDef structure that contains
 438:Drivers/STM32H7xx_HAL_Driver/Src/stm32h7xx_hal_dac.c ****   *         the configuration information for the specified DAC.
 439:Drivers/STM32H7xx_HAL_Driver/Src/stm32h7xx_hal_dac.c ****   * @param  Channel: The selected DAC channel. 
 440:Drivers/STM32H7xx_HAL_Driver/Src/stm32h7xx_hal_dac.c ****   *          This parameter can be one of the following values:
 441:Drivers/STM32H7xx_HAL_Driver/Src/stm32h7xx_hal_dac.c ****   *            @arg DAC_CHANNEL_1: DAC Channel1 selected
 442:Drivers/STM32H7xx_HAL_Driver/Src/stm32h7xx_hal_dac.c ****   *            @arg DAC_CHANNEL_2: DAC Channel2 selected
 443:Drivers/STM32H7xx_HAL_Driver/Src/stm32h7xx_hal_dac.c ****   * @retval HAL status
 444:Drivers/STM32H7xx_HAL_Driver/Src/stm32h7xx_hal_dac.c ****   */
 445:Drivers/STM32H7xx_HAL_Driver/Src/stm32h7xx_hal_dac.c **** HAL_StatusTypeDef HAL_DAC_Start(DAC_HandleTypeDef* hdac, uint32_t Channel)
 446:Drivers/STM32H7xx_HAL_Driver/Src/stm32h7xx_hal_dac.c **** {
 205              		.loc 1 446 1 is_stmt 1 view -0
 206              		.cfi_startproc
 207              		@ args = 0, pretend = 0, frame = 0
ARM GAS  /tmp/cc0KkzsK.s 			page 13


 208              		@ frame_needed = 0, uses_anonymous_args = 0
 209              		@ link register save eliminated.
 447:Drivers/STM32H7xx_HAL_Driver/Src/stm32h7xx_hal_dac.c **** 
 448:Drivers/STM32H7xx_HAL_Driver/Src/stm32h7xx_hal_dac.c ****   /* Check the parameters */
 449:Drivers/STM32H7xx_HAL_Driver/Src/stm32h7xx_hal_dac.c ****   assert_param(IS_DAC_CHANNEL(Channel));
 210              		.loc 1 449 3 view .LVU47
 450:Drivers/STM32H7xx_HAL_Driver/Src/stm32h7xx_hal_dac.c ****   
 451:Drivers/STM32H7xx_HAL_Driver/Src/stm32h7xx_hal_dac.c ****   /* Process locked */
 452:Drivers/STM32H7xx_HAL_Driver/Src/stm32h7xx_hal_dac.c ****   __HAL_LOCK(hdac);
 211              		.loc 1 452 3 view .LVU48
 212              		.loc 1 452 3 view .LVU49
 213 0000 4379     		ldrb	r3, [r0, #5]	@ zero_extendqisi2
 214 0002 012B     		cmp	r3, #1
 215 0004 29D0     		beq	.L23
 446:Drivers/STM32H7xx_HAL_Driver/Src/stm32h7xx_hal_dac.c **** 
 216              		.loc 1 446 1 is_stmt 0 discriminator 2 view .LVU50
 217 0006 10B4     		push	{r4}
 218              	.LCFI4:
 219              		.cfi_def_cfa_offset 4
 220              		.cfi_offset 4, -4
 221              		.loc 1 452 3 is_stmt 1 discriminator 2 view .LVU51
 222 0008 0123     		movs	r3, #1
 223 000a 4371     		strb	r3, [r0, #5]
 453:Drivers/STM32H7xx_HAL_Driver/Src/stm32h7xx_hal_dac.c ****   
 454:Drivers/STM32H7xx_HAL_Driver/Src/stm32h7xx_hal_dac.c ****   /* Change DAC state */
 455:Drivers/STM32H7xx_HAL_Driver/Src/stm32h7xx_hal_dac.c ****   hdac->State = HAL_DAC_STATE_BUSY;
 224              		.loc 1 455 3 discriminator 2 view .LVU52
 225              		.loc 1 455 15 is_stmt 0 discriminator 2 view .LVU53
 226 000c 0222     		movs	r2, #2
 227 000e 0271     		strb	r2, [r0, #4]
 456:Drivers/STM32H7xx_HAL_Driver/Src/stm32h7xx_hal_dac.c ****   
 457:Drivers/STM32H7xx_HAL_Driver/Src/stm32h7xx_hal_dac.c ****   /* Enable the Peripheral */
 458:Drivers/STM32H7xx_HAL_Driver/Src/stm32h7xx_hal_dac.c ****   __HAL_DAC_ENABLE(hdac, Channel);
 228              		.loc 1 458 3 is_stmt 1 discriminator 2 view .LVU54
 229 0010 0468     		ldr	r4, [r0]
 230 0012 2268     		ldr	r2, [r4]
 231 0014 8B40     		lsls	r3, r3, r1
 232 0016 1343     		orrs	r3, r3, r2
 233 0018 2360     		str	r3, [r4]
 459:Drivers/STM32H7xx_HAL_Driver/Src/stm32h7xx_hal_dac.c ****   
 460:Drivers/STM32H7xx_HAL_Driver/Src/stm32h7xx_hal_dac.c ****   if(Channel == DAC_CHANNEL_1)
 234              		.loc 1 460 3 discriminator 2 view .LVU55
 235              		.loc 1 460 5 is_stmt 0 discriminator 2 view .LVU56
 236 001a 91B9     		cbnz	r1, .L21
 461:Drivers/STM32H7xx_HAL_Driver/Src/stm32h7xx_hal_dac.c ****   {
 462:Drivers/STM32H7xx_HAL_Driver/Src/stm32h7xx_hal_dac.c ****     
 463:Drivers/STM32H7xx_HAL_Driver/Src/stm32h7xx_hal_dac.c ****     /* Check if software trigger enabled */
 464:Drivers/STM32H7xx_HAL_Driver/Src/stm32h7xx_hal_dac.c ****     if((hdac->Instance->CR & (DAC_CR_TEN1 | DAC_CR_TSEL1)) == DAC_CR_TEN1)
 237              		.loc 1 464 5 is_stmt 1 view .LVU57
 238              		.loc 1 464 13 is_stmt 0 view .LVU58
 239 001c 0268     		ldr	r2, [r0]
 240              		.loc 1 464 23 view .LVU59
 241 001e 1368     		ldr	r3, [r2]
 242              		.loc 1 464 28 view .LVU60
 243 0020 03F03E03 		and	r3, r3, #62
 244              		.loc 1 464 7 view .LVU61
 245 0024 022B     		cmp	r3, #2
ARM GAS  /tmp/cc0KkzsK.s 			page 14


 246 0026 07D0     		beq	.L28
 247              	.L22:
 465:Drivers/STM32H7xx_HAL_Driver/Src/stm32h7xx_hal_dac.c ****     {
 466:Drivers/STM32H7xx_HAL_Driver/Src/stm32h7xx_hal_dac.c ****       /* Enable the selected DAC software conversion */
 467:Drivers/STM32H7xx_HAL_Driver/Src/stm32h7xx_hal_dac.c ****       SET_BIT(hdac->Instance->SWTRIGR, DAC_SWTRIGR_SWTRIG1);
 468:Drivers/STM32H7xx_HAL_Driver/Src/stm32h7xx_hal_dac.c ****     }
 469:Drivers/STM32H7xx_HAL_Driver/Src/stm32h7xx_hal_dac.c ****   }
 470:Drivers/STM32H7xx_HAL_Driver/Src/stm32h7xx_hal_dac.c ****   else
 471:Drivers/STM32H7xx_HAL_Driver/Src/stm32h7xx_hal_dac.c ****   {  
 472:Drivers/STM32H7xx_HAL_Driver/Src/stm32h7xx_hal_dac.c ****     /* Check if software trigger enabled */
 473:Drivers/STM32H7xx_HAL_Driver/Src/stm32h7xx_hal_dac.c ****     if((hdac->Instance->CR & (DAC_CR_TEN2 | DAC_CR_TSEL2)) == DAC_CR_TEN2)
 474:Drivers/STM32H7xx_HAL_Driver/Src/stm32h7xx_hal_dac.c ****     {
 475:Drivers/STM32H7xx_HAL_Driver/Src/stm32h7xx_hal_dac.c ****       /* Enable the selected DAC software conversion*/
 476:Drivers/STM32H7xx_HAL_Driver/Src/stm32h7xx_hal_dac.c ****       SET_BIT(hdac->Instance->SWTRIGR, DAC_SWTRIGR_SWTRIG2);
 477:Drivers/STM32H7xx_HAL_Driver/Src/stm32h7xx_hal_dac.c ****     }
 478:Drivers/STM32H7xx_HAL_Driver/Src/stm32h7xx_hal_dac.c ****   }
 479:Drivers/STM32H7xx_HAL_Driver/Src/stm32h7xx_hal_dac.c ****   
 480:Drivers/STM32H7xx_HAL_Driver/Src/stm32h7xx_hal_dac.c ****   /* Change DAC state */
 481:Drivers/STM32H7xx_HAL_Driver/Src/stm32h7xx_hal_dac.c ****   hdac->State = HAL_DAC_STATE_READY;
 248              		.loc 1 481 3 is_stmt 1 view .LVU62
 249              		.loc 1 481 15 is_stmt 0 view .LVU63
 250 0028 0123     		movs	r3, #1
 251 002a 0371     		strb	r3, [r0, #4]
 482:Drivers/STM32H7xx_HAL_Driver/Src/stm32h7xx_hal_dac.c ****   
 483:Drivers/STM32H7xx_HAL_Driver/Src/stm32h7xx_hal_dac.c ****   /* Process unlocked */
 484:Drivers/STM32H7xx_HAL_Driver/Src/stm32h7xx_hal_dac.c ****   __HAL_UNLOCK(hdac);
 252              		.loc 1 484 3 is_stmt 1 view .LVU64
 253              		.loc 1 484 3 view .LVU65
 254 002c 0023     		movs	r3, #0
 255 002e 4371     		strb	r3, [r0, #5]
 485:Drivers/STM32H7xx_HAL_Driver/Src/stm32h7xx_hal_dac.c ****     
 486:Drivers/STM32H7xx_HAL_Driver/Src/stm32h7xx_hal_dac.c ****   /* Return function status */
 487:Drivers/STM32H7xx_HAL_Driver/Src/stm32h7xx_hal_dac.c ****   return HAL_OK;
 256              		.loc 1 487 3 view .LVU66
 257              		.loc 1 487 10 is_stmt 0 view .LVU67
 258 0030 1846     		mov	r0, r3
 259              	.LVL13:
 488:Drivers/STM32H7xx_HAL_Driver/Src/stm32h7xx_hal_dac.c **** }
 260              		.loc 1 488 1 view .LVU68
 261 0032 5DF8044B 		ldr	r4, [sp], #4
 262              	.LCFI5:
 263              		.cfi_remember_state
 264              		.cfi_restore 4
 265              		.cfi_def_cfa_offset 0
 266 0036 7047     		bx	lr
 267              	.LVL14:
 268              	.L28:
 269              	.LCFI6:
 270              		.cfi_restore_state
 467:Drivers/STM32H7xx_HAL_Driver/Src/stm32h7xx_hal_dac.c ****     }
 271              		.loc 1 467 7 is_stmt 1 view .LVU69
 272 0038 5368     		ldr	r3, [r2, #4]
 273 003a 43F00103 		orr	r3, r3, #1
 274 003e 5360     		str	r3, [r2, #4]
 275 0040 F2E7     		b	.L22
 276              	.L21:
 473:Drivers/STM32H7xx_HAL_Driver/Src/stm32h7xx_hal_dac.c ****     {
ARM GAS  /tmp/cc0KkzsK.s 			page 15


 277              		.loc 1 473 5 view .LVU70
 473:Drivers/STM32H7xx_HAL_Driver/Src/stm32h7xx_hal_dac.c ****     {
 278              		.loc 1 473 13 is_stmt 0 view .LVU71
 279 0042 0268     		ldr	r2, [r0]
 473:Drivers/STM32H7xx_HAL_Driver/Src/stm32h7xx_hal_dac.c ****     {
 280              		.loc 1 473 23 view .LVU72
 281 0044 1368     		ldr	r3, [r2]
 473:Drivers/STM32H7xx_HAL_Driver/Src/stm32h7xx_hal_dac.c ****     {
 282              		.loc 1 473 28 view .LVU73
 283 0046 03F47813 		and	r3, r3, #4063232
 473:Drivers/STM32H7xx_HAL_Driver/Src/stm32h7xx_hal_dac.c ****     {
 284              		.loc 1 473 7 view .LVU74
 285 004a B3F5003F 		cmp	r3, #131072
 286 004e EBD1     		bne	.L22
 476:Drivers/STM32H7xx_HAL_Driver/Src/stm32h7xx_hal_dac.c ****     }
 287              		.loc 1 476 7 is_stmt 1 view .LVU75
 288 0050 5368     		ldr	r3, [r2, #4]
 289 0052 43F00203 		orr	r3, r3, #2
 290 0056 5360     		str	r3, [r2, #4]
 291 0058 E6E7     		b	.L22
 292              	.L23:
 293              	.LCFI7:
 294              		.cfi_def_cfa_offset 0
 295              		.cfi_restore 4
 452:Drivers/STM32H7xx_HAL_Driver/Src/stm32h7xx_hal_dac.c ****   
 296              		.loc 1 452 3 is_stmt 0 view .LVU76
 297 005a 0220     		movs	r0, #2
 298              	.LVL15:
 299              		.loc 1 488 1 view .LVU77
 300 005c 7047     		bx	lr
 301              		.cfi_endproc
 302              	.LFE141:
 304              		.section	.text.HAL_DAC_Stop,"ax",%progbits
 305              		.align	1
 306              		.global	HAL_DAC_Stop
 307              		.syntax unified
 308              		.thumb
 309              		.thumb_func
 310              		.fpu fpv5-d16
 312              	HAL_DAC_Stop:
 313              	.LVL16:
 314              	.LFB142:
 489:Drivers/STM32H7xx_HAL_Driver/Src/stm32h7xx_hal_dac.c ****   
 490:Drivers/STM32H7xx_HAL_Driver/Src/stm32h7xx_hal_dac.c **** /**
 491:Drivers/STM32H7xx_HAL_Driver/Src/stm32h7xx_hal_dac.c ****   * @brief  Disable DAC and stop conversion of channel.
 492:Drivers/STM32H7xx_HAL_Driver/Src/stm32h7xx_hal_dac.c ****   * @param  hdac: pointer to a DAC_HandleTypeDef structure that contains
 493:Drivers/STM32H7xx_HAL_Driver/Src/stm32h7xx_hal_dac.c ****   *         the configuration information for the specified DAC.
 494:Drivers/STM32H7xx_HAL_Driver/Src/stm32h7xx_hal_dac.c ****   * @param  Channel: The selected DAC channel. 
 495:Drivers/STM32H7xx_HAL_Driver/Src/stm32h7xx_hal_dac.c ****   *          This parameter can be one of the following values:
 496:Drivers/STM32H7xx_HAL_Driver/Src/stm32h7xx_hal_dac.c ****   *            @arg DAC_CHANNEL_1: DAC Channel1 selected
 497:Drivers/STM32H7xx_HAL_Driver/Src/stm32h7xx_hal_dac.c ****   *            @arg DAC_CHANNEL_2: DAC Channel2 selected  
 498:Drivers/STM32H7xx_HAL_Driver/Src/stm32h7xx_hal_dac.c ****   * @retval HAL status
 499:Drivers/STM32H7xx_HAL_Driver/Src/stm32h7xx_hal_dac.c ****   */
 500:Drivers/STM32H7xx_HAL_Driver/Src/stm32h7xx_hal_dac.c **** HAL_StatusTypeDef HAL_DAC_Stop(DAC_HandleTypeDef* hdac, uint32_t Channel)
 501:Drivers/STM32H7xx_HAL_Driver/Src/stm32h7xx_hal_dac.c **** {
 315              		.loc 1 501 1 is_stmt 1 view -0
 316              		.cfi_startproc
ARM GAS  /tmp/cc0KkzsK.s 			page 16


 317              		@ args = 0, pretend = 0, frame = 0
 318              		@ frame_needed = 0, uses_anonymous_args = 0
 319              		@ link register save eliminated.
 320              		.loc 1 501 1 is_stmt 0 view .LVU79
 321 0000 10B4     		push	{r4}
 322              	.LCFI8:
 323              		.cfi_def_cfa_offset 4
 324              		.cfi_offset 4, -4
 502:Drivers/STM32H7xx_HAL_Driver/Src/stm32h7xx_hal_dac.c ****   /* Check the parameters */
 503:Drivers/STM32H7xx_HAL_Driver/Src/stm32h7xx_hal_dac.c ****   assert_param(IS_DAC_CHANNEL(Channel));
 325              		.loc 1 503 3 is_stmt 1 view .LVU80
 504:Drivers/STM32H7xx_HAL_Driver/Src/stm32h7xx_hal_dac.c ****   
 505:Drivers/STM32H7xx_HAL_Driver/Src/stm32h7xx_hal_dac.c ****   /* Disable the Peripheral */
 506:Drivers/STM32H7xx_HAL_Driver/Src/stm32h7xx_hal_dac.c ****   __HAL_DAC_DISABLE(hdac, Channel);
 326              		.loc 1 506 3 view .LVU81
 327 0002 0468     		ldr	r4, [r0]
 328 0004 2368     		ldr	r3, [r4]
 329 0006 0122     		movs	r2, #1
 330 0008 02FA01F1 		lsl	r1, r2, r1
 331              	.LVL17:
 332              		.loc 1 506 3 is_stmt 0 view .LVU82
 333 000c 23EA0103 		bic	r3, r3, r1
 334 0010 2360     		str	r3, [r4]
 507:Drivers/STM32H7xx_HAL_Driver/Src/stm32h7xx_hal_dac.c ****   
 508:Drivers/STM32H7xx_HAL_Driver/Src/stm32h7xx_hal_dac.c ****   /* Change DAC state */
 509:Drivers/STM32H7xx_HAL_Driver/Src/stm32h7xx_hal_dac.c ****   hdac->State = HAL_DAC_STATE_READY;
 335              		.loc 1 509 3 is_stmt 1 view .LVU83
 336              		.loc 1 509 15 is_stmt 0 view .LVU84
 337 0012 0271     		strb	r2, [r0, #4]
 510:Drivers/STM32H7xx_HAL_Driver/Src/stm32h7xx_hal_dac.c ****   
 511:Drivers/STM32H7xx_HAL_Driver/Src/stm32h7xx_hal_dac.c ****   /* Return function status */
 512:Drivers/STM32H7xx_HAL_Driver/Src/stm32h7xx_hal_dac.c ****   return HAL_OK;
 338              		.loc 1 512 3 is_stmt 1 view .LVU85
 513:Drivers/STM32H7xx_HAL_Driver/Src/stm32h7xx_hal_dac.c **** }
 339              		.loc 1 513 1 is_stmt 0 view .LVU86
 340 0014 0020     		movs	r0, #0
 341              	.LVL18:
 342              		.loc 1 513 1 view .LVU87
 343 0016 5DF8044B 		ldr	r4, [sp], #4
 344              	.LCFI9:
 345              		.cfi_restore 4
 346              		.cfi_def_cfa_offset 0
 347 001a 7047     		bx	lr
 348              		.cfi_endproc
 349              	.LFE142:
 351              		.section	.text.HAL_DAC_Start_DMA,"ax",%progbits
 352              		.align	1
 353              		.global	HAL_DAC_Start_DMA
 354              		.syntax unified
 355              		.thumb
 356              		.thumb_func
 357              		.fpu fpv5-d16
 359              	HAL_DAC_Start_DMA:
 360              	.LVL19:
 361              	.LFB143:
 514:Drivers/STM32H7xx_HAL_Driver/Src/stm32h7xx_hal_dac.c **** 
 515:Drivers/STM32H7xx_HAL_Driver/Src/stm32h7xx_hal_dac.c **** /**
ARM GAS  /tmp/cc0KkzsK.s 			page 17


 516:Drivers/STM32H7xx_HAL_Driver/Src/stm32h7xx_hal_dac.c ****   * @brief  Enable DAC and start conversion of channel.
 517:Drivers/STM32H7xx_HAL_Driver/Src/stm32h7xx_hal_dac.c ****   * @param  hdac: pointer to a DAC_HandleTypeDef structure that contains
 518:Drivers/STM32H7xx_HAL_Driver/Src/stm32h7xx_hal_dac.c ****   *         the configuration information for the specified DAC.
 519:Drivers/STM32H7xx_HAL_Driver/Src/stm32h7xx_hal_dac.c ****   * @param  Channel: The selected DAC channel. 
 520:Drivers/STM32H7xx_HAL_Driver/Src/stm32h7xx_hal_dac.c ****   *          This parameter can be one of the following values:
 521:Drivers/STM32H7xx_HAL_Driver/Src/stm32h7xx_hal_dac.c ****   *            @arg DAC_CHANNEL_1: DAC Channel1 selected
 522:Drivers/STM32H7xx_HAL_Driver/Src/stm32h7xx_hal_dac.c ****   *            @arg DAC_CHANNEL_2: DAC Channel2 selected
 523:Drivers/STM32H7xx_HAL_Driver/Src/stm32h7xx_hal_dac.c ****   * @param  pData: The destination peripheral Buffer address.
 524:Drivers/STM32H7xx_HAL_Driver/Src/stm32h7xx_hal_dac.c ****   * @param  Length: The length of data to be transferred from memory to DAC peripheral
 525:Drivers/STM32H7xx_HAL_Driver/Src/stm32h7xx_hal_dac.c ****   * @param  Alignment: Specifies the data alignment for DAC channel.
 526:Drivers/STM32H7xx_HAL_Driver/Src/stm32h7xx_hal_dac.c ****   *          This parameter can be one of the following values:
 527:Drivers/STM32H7xx_HAL_Driver/Src/stm32h7xx_hal_dac.c ****   *            @arg DAC_ALIGN_8B_R: 8bit right data alignment selected
 528:Drivers/STM32H7xx_HAL_Driver/Src/stm32h7xx_hal_dac.c ****   *            @arg DAC_ALIGN_12B_L: 12bit left data alignment selected
 529:Drivers/STM32H7xx_HAL_Driver/Src/stm32h7xx_hal_dac.c ****   *            @arg DAC_ALIGN_12B_R: 12bit right data alignment selected
 530:Drivers/STM32H7xx_HAL_Driver/Src/stm32h7xx_hal_dac.c ****   * @retval HAL status
 531:Drivers/STM32H7xx_HAL_Driver/Src/stm32h7xx_hal_dac.c ****   */
 532:Drivers/STM32H7xx_HAL_Driver/Src/stm32h7xx_hal_dac.c **** HAL_StatusTypeDef HAL_DAC_Start_DMA(DAC_HandleTypeDef* hdac, uint32_t Channel, uint32_t* pData, uin
 533:Drivers/STM32H7xx_HAL_Driver/Src/stm32h7xx_hal_dac.c **** {
 362              		.loc 1 533 1 is_stmt 1 view -0
 363              		.cfi_startproc
 364              		@ args = 4, pretend = 0, frame = 0
 365              		@ frame_needed = 0, uses_anonymous_args = 0
 366              		.loc 1 533 1 is_stmt 0 view .LVU89
 367 0000 F8B5     		push	{r3, r4, r5, r6, r7, lr}
 368              	.LCFI10:
 369              		.cfi_def_cfa_offset 24
 370              		.cfi_offset 3, -24
 371              		.cfi_offset 4, -20
 372              		.cfi_offset 5, -16
 373              		.cfi_offset 6, -12
 374              		.cfi_offset 7, -8
 375              		.cfi_offset 14, -4
 376 0002 069C     		ldr	r4, [sp, #24]
 534:Drivers/STM32H7xx_HAL_Driver/Src/stm32h7xx_hal_dac.c ****   uint32_t tmpreg = 0;
 377              		.loc 1 534 3 is_stmt 1 view .LVU90
 378              	.LVL20:
 535:Drivers/STM32H7xx_HAL_Driver/Src/stm32h7xx_hal_dac.c ****     
 536:Drivers/STM32H7xx_HAL_Driver/Src/stm32h7xx_hal_dac.c ****   /* Check the parameters */
 537:Drivers/STM32H7xx_HAL_Driver/Src/stm32h7xx_hal_dac.c ****   assert_param(IS_DAC_CHANNEL(Channel));
 379              		.loc 1 537 3 view .LVU91
 538:Drivers/STM32H7xx_HAL_Driver/Src/stm32h7xx_hal_dac.c ****   assert_param(IS_DAC_ALIGN(Alignment));
 380              		.loc 1 538 3 view .LVU92
 539:Drivers/STM32H7xx_HAL_Driver/Src/stm32h7xx_hal_dac.c ****   
 540:Drivers/STM32H7xx_HAL_Driver/Src/stm32h7xx_hal_dac.c ****   /* Process locked */
 541:Drivers/STM32H7xx_HAL_Driver/Src/stm32h7xx_hal_dac.c ****   __HAL_LOCK(hdac);
 381              		.loc 1 541 3 view .LVU93
 382              		.loc 1 541 3 view .LVU94
 383 0004 4679     		ldrb	r6, [r0, #5]	@ zero_extendqisi2
 384 0006 012E     		cmp	r6, #1
 385 0008 64D0     		beq	.L41
 386              		.loc 1 541 3 discriminator 2 view .LVU95
 387 000a 0126     		movs	r6, #1
 388 000c 4671     		strb	r6, [r0, #5]
 542:Drivers/STM32H7xx_HAL_Driver/Src/stm32h7xx_hal_dac.c ****   
 543:Drivers/STM32H7xx_HAL_Driver/Src/stm32h7xx_hal_dac.c ****   /* Change DAC state */
 544:Drivers/STM32H7xx_HAL_Driver/Src/stm32h7xx_hal_dac.c ****   hdac->State = HAL_DAC_STATE_BUSY;
 389              		.loc 1 544 3 discriminator 2 view .LVU96
ARM GAS  /tmp/cc0KkzsK.s 			page 18


 390              		.loc 1 544 15 is_stmt 0 discriminator 2 view .LVU97
 391 000e 0226     		movs	r6, #2
 392 0010 0671     		strb	r6, [r0, #4]
 545:Drivers/STM32H7xx_HAL_Driver/Src/stm32h7xx_hal_dac.c ****   
 546:Drivers/STM32H7xx_HAL_Driver/Src/stm32h7xx_hal_dac.c ****   if(Channel == DAC_CHANNEL_1)
 393              		.loc 1 546 3 is_stmt 1 discriminator 2 view .LVU98
 394              		.loc 1 546 5 is_stmt 0 discriminator 2 view .LVU99
 395 0012 0029     		cmp	r1, #0
 396 0014 35D1     		bne	.L33
 547:Drivers/STM32H7xx_HAL_Driver/Src/stm32h7xx_hal_dac.c ****   {
 548:Drivers/STM32H7xx_HAL_Driver/Src/stm32h7xx_hal_dac.c ****     /* Set the DMA transfer complete callback for channel1 */
 549:Drivers/STM32H7xx_HAL_Driver/Src/stm32h7xx_hal_dac.c ****     hdac->DMA_Handle1->XferCpltCallback = DAC_DMAConvCpltCh1;
 397              		.loc 1 549 5 is_stmt 1 view .LVU100
 398              		.loc 1 549 9 is_stmt 0 view .LVU101
 399 0016 8568     		ldr	r5, [r0, #8]
 400              		.loc 1 549 41 view .LVU102
 401 0018 2F4E     		ldr	r6, .L47
 402 001a EE63     		str	r6, [r5, #60]
 550:Drivers/STM32H7xx_HAL_Driver/Src/stm32h7xx_hal_dac.c ****     
 551:Drivers/STM32H7xx_HAL_Driver/Src/stm32h7xx_hal_dac.c ****     /* Set the DMA half transfer complete callback for channel1 */
 552:Drivers/STM32H7xx_HAL_Driver/Src/stm32h7xx_hal_dac.c ****     hdac->DMA_Handle1->XferHalfCpltCallback = DAC_DMAHalfConvCpltCh1;
 403              		.loc 1 552 5 is_stmt 1 view .LVU103
 404              		.loc 1 552 9 is_stmt 0 view .LVU104
 405 001c 8568     		ldr	r5, [r0, #8]
 406              		.loc 1 552 45 view .LVU105
 407 001e 2F4E     		ldr	r6, .L47+4
 408 0020 2E64     		str	r6, [r5, #64]
 553:Drivers/STM32H7xx_HAL_Driver/Src/stm32h7xx_hal_dac.c ****        
 554:Drivers/STM32H7xx_HAL_Driver/Src/stm32h7xx_hal_dac.c ****     /* Set the DMA error callback for channel1 */
 555:Drivers/STM32H7xx_HAL_Driver/Src/stm32h7xx_hal_dac.c ****     hdac->DMA_Handle1->XferErrorCallback = DAC_DMAErrorCh1;
 409              		.loc 1 555 5 is_stmt 1 view .LVU106
 410              		.loc 1 555 9 is_stmt 0 view .LVU107
 411 0022 8568     		ldr	r5, [r0, #8]
 412              		.loc 1 555 42 view .LVU108
 413 0024 2E4E     		ldr	r6, .L47+8
 414 0026 EE64     		str	r6, [r5, #76]
 556:Drivers/STM32H7xx_HAL_Driver/Src/stm32h7xx_hal_dac.c ****     
 557:Drivers/STM32H7xx_HAL_Driver/Src/stm32h7xx_hal_dac.c ****     /* Enable the selected DAC channel1 DMA request */
 558:Drivers/STM32H7xx_HAL_Driver/Src/stm32h7xx_hal_dac.c ****     SET_BIT(hdac->Instance->CR, DAC_CR_DMAEN1);
 415              		.loc 1 558 5 is_stmt 1 view .LVU109
 416 0028 0668     		ldr	r6, [r0]
 417 002a 3568     		ldr	r5, [r6]
 418 002c 45F48055 		orr	r5, r5, #4096
 419 0030 3560     		str	r5, [r6]
 559:Drivers/STM32H7xx_HAL_Driver/Src/stm32h7xx_hal_dac.c ****     
 560:Drivers/STM32H7xx_HAL_Driver/Src/stm32h7xx_hal_dac.c ****     /* Case of use of channel 1 */
 561:Drivers/STM32H7xx_HAL_Driver/Src/stm32h7xx_hal_dac.c ****     switch(Alignment)
 420              		.loc 1 561 5 view .LVU110
 421 0032 042C     		cmp	r4, #4
 422 0034 1FD0     		beq	.L34
 423 0036 082C     		cmp	r4, #8
 424 0038 20D0     		beq	.L35
 425 003a CCB1     		cbz	r4, .L45
 534:Drivers/STM32H7xx_HAL_Driver/Src/stm32h7xx_hal_dac.c ****     
 426              		.loc 1 534 12 is_stmt 0 view .LVU111
 427 003c 0E46     		mov	r6, r1
 428              	.LVL21:
ARM GAS  /tmp/cc0KkzsK.s 			page 19


 429              	.L36:
 534:Drivers/STM32H7xx_HAL_Driver/Src/stm32h7xx_hal_dac.c ****     
 430              		.loc 1 534 12 view .LVU112
 431 003e 1746     		mov	r7, r2
 432 0040 0D46     		mov	r5, r1
 433 0042 0446     		mov	r4, r0
 434              	.LVL22:
 562:Drivers/STM32H7xx_HAL_Driver/Src/stm32h7xx_hal_dac.c ****     {
 563:Drivers/STM32H7xx_HAL_Driver/Src/stm32h7xx_hal_dac.c ****       case DAC_ALIGN_12B_R:
 564:Drivers/STM32H7xx_HAL_Driver/Src/stm32h7xx_hal_dac.c ****         /* Get DHR12R1 address */
 565:Drivers/STM32H7xx_HAL_Driver/Src/stm32h7xx_hal_dac.c ****         tmpreg = (uint32_t)&hdac->Instance->DHR12R1;
 566:Drivers/STM32H7xx_HAL_Driver/Src/stm32h7xx_hal_dac.c ****         break;
 567:Drivers/STM32H7xx_HAL_Driver/Src/stm32h7xx_hal_dac.c ****       case DAC_ALIGN_12B_L:
 568:Drivers/STM32H7xx_HAL_Driver/Src/stm32h7xx_hal_dac.c ****         /* Get DHR12L1 address */
 569:Drivers/STM32H7xx_HAL_Driver/Src/stm32h7xx_hal_dac.c ****         tmpreg = (uint32_t)&hdac->Instance->DHR12L1;
 570:Drivers/STM32H7xx_HAL_Driver/Src/stm32h7xx_hal_dac.c ****         break;
 571:Drivers/STM32H7xx_HAL_Driver/Src/stm32h7xx_hal_dac.c ****       case DAC_ALIGN_8B_R:
 572:Drivers/STM32H7xx_HAL_Driver/Src/stm32h7xx_hal_dac.c ****         /* Get DHR8R1 address */
 573:Drivers/STM32H7xx_HAL_Driver/Src/stm32h7xx_hal_dac.c ****         tmpreg = (uint32_t)&hdac->Instance->DHR8R1;
 574:Drivers/STM32H7xx_HAL_Driver/Src/stm32h7xx_hal_dac.c ****         break;
 575:Drivers/STM32H7xx_HAL_Driver/Src/stm32h7xx_hal_dac.c ****       default:
 576:Drivers/STM32H7xx_HAL_Driver/Src/stm32h7xx_hal_dac.c ****         break;
 577:Drivers/STM32H7xx_HAL_Driver/Src/stm32h7xx_hal_dac.c ****     }
 578:Drivers/STM32H7xx_HAL_Driver/Src/stm32h7xx_hal_dac.c ****   }
 579:Drivers/STM32H7xx_HAL_Driver/Src/stm32h7xx_hal_dac.c ****   else
 580:Drivers/STM32H7xx_HAL_Driver/Src/stm32h7xx_hal_dac.c ****   {
 581:Drivers/STM32H7xx_HAL_Driver/Src/stm32h7xx_hal_dac.c ****     /* Set the DMA transfer complete callback for channel2 */
 582:Drivers/STM32H7xx_HAL_Driver/Src/stm32h7xx_hal_dac.c ****     hdac->DMA_Handle2->XferCpltCallback = DAC_DMAConvCpltCh2;
 583:Drivers/STM32H7xx_HAL_Driver/Src/stm32h7xx_hal_dac.c ****     
 584:Drivers/STM32H7xx_HAL_Driver/Src/stm32h7xx_hal_dac.c ****     /* Set the DMA half transfer complete callback for channel2 */
 585:Drivers/STM32H7xx_HAL_Driver/Src/stm32h7xx_hal_dac.c ****     hdac->DMA_Handle2->XferHalfCpltCallback = DAC_DMAHalfConvCpltCh2;
 586:Drivers/STM32H7xx_HAL_Driver/Src/stm32h7xx_hal_dac.c ****        
 587:Drivers/STM32H7xx_HAL_Driver/Src/stm32h7xx_hal_dac.c ****     /* Set the DMA error callback for channel2 */
 588:Drivers/STM32H7xx_HAL_Driver/Src/stm32h7xx_hal_dac.c ****     hdac->DMA_Handle2->XferErrorCallback = DAC_DMAErrorCh2;
 589:Drivers/STM32H7xx_HAL_Driver/Src/stm32h7xx_hal_dac.c ****     
 590:Drivers/STM32H7xx_HAL_Driver/Src/stm32h7xx_hal_dac.c ****     /* Enable the selected DAC channel2 DMA request */
 591:Drivers/STM32H7xx_HAL_Driver/Src/stm32h7xx_hal_dac.c ****     SET_BIT(hdac->Instance->CR, DAC_CR_DMAEN2);
 592:Drivers/STM32H7xx_HAL_Driver/Src/stm32h7xx_hal_dac.c ****     
 593:Drivers/STM32H7xx_HAL_Driver/Src/stm32h7xx_hal_dac.c ****     /* Case of use of channel 2 */
 594:Drivers/STM32H7xx_HAL_Driver/Src/stm32h7xx_hal_dac.c ****     switch(Alignment)
 595:Drivers/STM32H7xx_HAL_Driver/Src/stm32h7xx_hal_dac.c ****     {
 596:Drivers/STM32H7xx_HAL_Driver/Src/stm32h7xx_hal_dac.c ****       case DAC_ALIGN_12B_R:
 597:Drivers/STM32H7xx_HAL_Driver/Src/stm32h7xx_hal_dac.c ****         /* Get DHR12R2 address */
 598:Drivers/STM32H7xx_HAL_Driver/Src/stm32h7xx_hal_dac.c ****         tmpreg = (uint32_t)&hdac->Instance->DHR12R2;
 599:Drivers/STM32H7xx_HAL_Driver/Src/stm32h7xx_hal_dac.c ****         break;
 600:Drivers/STM32H7xx_HAL_Driver/Src/stm32h7xx_hal_dac.c ****       case DAC_ALIGN_12B_L:
 601:Drivers/STM32H7xx_HAL_Driver/Src/stm32h7xx_hal_dac.c ****         /* Get DHR12L2 address */
 602:Drivers/STM32H7xx_HAL_Driver/Src/stm32h7xx_hal_dac.c ****         tmpreg = (uint32_t)&hdac->Instance->DHR12L2;
 603:Drivers/STM32H7xx_HAL_Driver/Src/stm32h7xx_hal_dac.c ****         break;
 604:Drivers/STM32H7xx_HAL_Driver/Src/stm32h7xx_hal_dac.c ****       case DAC_ALIGN_8B_R:
 605:Drivers/STM32H7xx_HAL_Driver/Src/stm32h7xx_hal_dac.c ****         /* Get DHR8R2 address */
 606:Drivers/STM32H7xx_HAL_Driver/Src/stm32h7xx_hal_dac.c ****         tmpreg = (uint32_t)&hdac->Instance->DHR8R2;
 607:Drivers/STM32H7xx_HAL_Driver/Src/stm32h7xx_hal_dac.c ****         break;
 608:Drivers/STM32H7xx_HAL_Driver/Src/stm32h7xx_hal_dac.c ****       default:
 609:Drivers/STM32H7xx_HAL_Driver/Src/stm32h7xx_hal_dac.c ****         break;
 610:Drivers/STM32H7xx_HAL_Driver/Src/stm32h7xx_hal_dac.c ****     }
 611:Drivers/STM32H7xx_HAL_Driver/Src/stm32h7xx_hal_dac.c ****   }
ARM GAS  /tmp/cc0KkzsK.s 			page 20


 612:Drivers/STM32H7xx_HAL_Driver/Src/stm32h7xx_hal_dac.c ****   
 613:Drivers/STM32H7xx_HAL_Driver/Src/stm32h7xx_hal_dac.c ****   /* Enable the DMA Stream */
 614:Drivers/STM32H7xx_HAL_Driver/Src/stm32h7xx_hal_dac.c ****   if(Channel == DAC_CHANNEL_1)
 435              		.loc 1 614 3 is_stmt 1 view .LVU113
 436              		.loc 1 614 5 is_stmt 0 view .LVU114
 437 0044 0029     		cmp	r1, #0
 438 0046 3AD1     		bne	.L39
 615:Drivers/STM32H7xx_HAL_Driver/Src/stm32h7xx_hal_dac.c ****   {
 616:Drivers/STM32H7xx_HAL_Driver/Src/stm32h7xx_hal_dac.c ****     /* Enable the DAC DMA underrun interrupt */
 617:Drivers/STM32H7xx_HAL_Driver/Src/stm32h7xx_hal_dac.c ****     __HAL_DAC_ENABLE_IT(hdac, DAC_IT_DMAUDR1);
 439              		.loc 1 617 5 is_stmt 1 view .LVU115
 440 0048 0168     		ldr	r1, [r0]
 441              	.LVL23:
 442              		.loc 1 617 5 is_stmt 0 view .LVU116
 443 004a 0A68     		ldr	r2, [r1]
 444              	.LVL24:
 445              		.loc 1 617 5 view .LVU117
 446 004c 42F40052 		orr	r2, r2, #8192
 447 0050 0A60     		str	r2, [r1]
 618:Drivers/STM32H7xx_HAL_Driver/Src/stm32h7xx_hal_dac.c ****     
 619:Drivers/STM32H7xx_HAL_Driver/Src/stm32h7xx_hal_dac.c ****     /* Enable the DMA Stream */
 620:Drivers/STM32H7xx_HAL_Driver/Src/stm32h7xx_hal_dac.c ****     HAL_DMA_Start_IT(hdac->DMA_Handle1, (uint32_t)pData, tmpreg, Length);
 448              		.loc 1 620 5 is_stmt 1 view .LVU118
 449 0052 3246     		mov	r2, r6
 450 0054 3946     		mov	r1, r7
 451 0056 8068     		ldr	r0, [r0, #8]
 452              	.LVL25:
 453              		.loc 1 620 5 is_stmt 0 view .LVU119
 454 0058 FFF7FEFF 		bl	HAL_DMA_Start_IT
 455              	.LVL26:
 456              	.L40:
 621:Drivers/STM32H7xx_HAL_Driver/Src/stm32h7xx_hal_dac.c ****   } 
 622:Drivers/STM32H7xx_HAL_Driver/Src/stm32h7xx_hal_dac.c ****   else
 623:Drivers/STM32H7xx_HAL_Driver/Src/stm32h7xx_hal_dac.c ****   {
 624:Drivers/STM32H7xx_HAL_Driver/Src/stm32h7xx_hal_dac.c ****     /* Enable the DAC DMA underrun interrupt */
 625:Drivers/STM32H7xx_HAL_Driver/Src/stm32h7xx_hal_dac.c ****     __HAL_DAC_ENABLE_IT(hdac, DAC_IT_DMAUDR2);
 626:Drivers/STM32H7xx_HAL_Driver/Src/stm32h7xx_hal_dac.c ****     
 627:Drivers/STM32H7xx_HAL_Driver/Src/stm32h7xx_hal_dac.c ****     /* Enable the DMA Stream */
 628:Drivers/STM32H7xx_HAL_Driver/Src/stm32h7xx_hal_dac.c ****     HAL_DMA_Start_IT(hdac->DMA_Handle2, (uint32_t)pData, tmpreg, Length);
 629:Drivers/STM32H7xx_HAL_Driver/Src/stm32h7xx_hal_dac.c ****   }
 630:Drivers/STM32H7xx_HAL_Driver/Src/stm32h7xx_hal_dac.c **** 
 631:Drivers/STM32H7xx_HAL_Driver/Src/stm32h7xx_hal_dac.c ****   /* Process Unlocked */
 632:Drivers/STM32H7xx_HAL_Driver/Src/stm32h7xx_hal_dac.c ****   __HAL_UNLOCK(hdac);
 457              		.loc 1 632 3 is_stmt 1 view .LVU120
 458              		.loc 1 632 3 view .LVU121
 459 005c 0020     		movs	r0, #0
 460 005e 6071     		strb	r0, [r4, #5]
 633:Drivers/STM32H7xx_HAL_Driver/Src/stm32h7xx_hal_dac.c ****   /* Enable the Peripheral */
 634:Drivers/STM32H7xx_HAL_Driver/Src/stm32h7xx_hal_dac.c ****   __HAL_DAC_ENABLE(hdac, Channel);
 461              		.loc 1 634 3 view .LVU122
 462 0060 2268     		ldr	r2, [r4]
 463 0062 1368     		ldr	r3, [r2]
 464 0064 0121     		movs	r1, #1
 465 0066 01FA05F5 		lsl	r5, r1, r5
 466              	.LVL27:
 467              		.loc 1 634 3 is_stmt 0 view .LVU123
 468 006a 1D43     		orrs	r5, r5, r3
ARM GAS  /tmp/cc0KkzsK.s 			page 21


 469 006c 1560     		str	r5, [r2]
 635:Drivers/STM32H7xx_HAL_Driver/Src/stm32h7xx_hal_dac.c ****   
 636:Drivers/STM32H7xx_HAL_Driver/Src/stm32h7xx_hal_dac.c ****   
 637:Drivers/STM32H7xx_HAL_Driver/Src/stm32h7xx_hal_dac.c ****   
 638:Drivers/STM32H7xx_HAL_Driver/Src/stm32h7xx_hal_dac.c ****   /* Return function status */
 639:Drivers/STM32H7xx_HAL_Driver/Src/stm32h7xx_hal_dac.c ****   return HAL_OK;
 470              		.loc 1 639 3 is_stmt 1 view .LVU124
 471              	.LVL28:
 472              	.L32:
 640:Drivers/STM32H7xx_HAL_Driver/Src/stm32h7xx_hal_dac.c **** }
 473              		.loc 1 640 1 is_stmt 0 view .LVU125
 474 006e F8BD     		pop	{r3, r4, r5, r6, r7, pc}
 475              	.LVL29:
 476              	.L45:
 565:Drivers/STM32H7xx_HAL_Driver/Src/stm32h7xx_hal_dac.c ****         break;
 477              		.loc 1 565 9 is_stmt 1 view .LVU126
 565:Drivers/STM32H7xx_HAL_Driver/Src/stm32h7xx_hal_dac.c ****         break;
 478              		.loc 1 565 33 is_stmt 0 view .LVU127
 479 0070 0668     		ldr	r6, [r0]
 565:Drivers/STM32H7xx_HAL_Driver/Src/stm32h7xx_hal_dac.c ****         break;
 480              		.loc 1 565 28 view .LVU128
 481 0072 0836     		adds	r6, r6, #8
 482              	.LVL30:
 566:Drivers/STM32H7xx_HAL_Driver/Src/stm32h7xx_hal_dac.c ****       case DAC_ALIGN_12B_L:
 483              		.loc 1 566 9 is_stmt 1 view .LVU129
 484 0074 E3E7     		b	.L36
 485              	.LVL31:
 486              	.L34:
 569:Drivers/STM32H7xx_HAL_Driver/Src/stm32h7xx_hal_dac.c ****         break;
 487              		.loc 1 569 9 view .LVU130
 569:Drivers/STM32H7xx_HAL_Driver/Src/stm32h7xx_hal_dac.c ****         break;
 488              		.loc 1 569 33 is_stmt 0 view .LVU131
 489 0076 0668     		ldr	r6, [r0]
 569:Drivers/STM32H7xx_HAL_Driver/Src/stm32h7xx_hal_dac.c ****         break;
 490              		.loc 1 569 28 view .LVU132
 491 0078 0C36     		adds	r6, r6, #12
 492              	.LVL32:
 570:Drivers/STM32H7xx_HAL_Driver/Src/stm32h7xx_hal_dac.c ****       case DAC_ALIGN_8B_R:
 493              		.loc 1 570 9 is_stmt 1 view .LVU133
 494 007a E0E7     		b	.L36
 495              	.LVL33:
 496              	.L35:
 573:Drivers/STM32H7xx_HAL_Driver/Src/stm32h7xx_hal_dac.c ****         break;
 497              		.loc 1 573 9 view .LVU134
 573:Drivers/STM32H7xx_HAL_Driver/Src/stm32h7xx_hal_dac.c ****         break;
 498              		.loc 1 573 33 is_stmt 0 view .LVU135
 499 007c 0668     		ldr	r6, [r0]
 573:Drivers/STM32H7xx_HAL_Driver/Src/stm32h7xx_hal_dac.c ****         break;
 500              		.loc 1 573 28 view .LVU136
 501 007e 1036     		adds	r6, r6, #16
 502              	.LVL34:
 574:Drivers/STM32H7xx_HAL_Driver/Src/stm32h7xx_hal_dac.c ****       default:
 503              		.loc 1 574 9 is_stmt 1 view .LVU137
 504 0080 DDE7     		b	.L36
 505              	.LVL35:
 506              	.L33:
 582:Drivers/STM32H7xx_HAL_Driver/Src/stm32h7xx_hal_dac.c ****     
ARM GAS  /tmp/cc0KkzsK.s 			page 22


 507              		.loc 1 582 5 view .LVU138
 582:Drivers/STM32H7xx_HAL_Driver/Src/stm32h7xx_hal_dac.c ****     
 508              		.loc 1 582 9 is_stmt 0 view .LVU139
 509 0082 C568     		ldr	r5, [r0, #12]
 582:Drivers/STM32H7xx_HAL_Driver/Src/stm32h7xx_hal_dac.c ****     
 510              		.loc 1 582 41 view .LVU140
 511 0084 174E     		ldr	r6, .L47+12
 512 0086 EE63     		str	r6, [r5, #60]
 585:Drivers/STM32H7xx_HAL_Driver/Src/stm32h7xx_hal_dac.c ****        
 513              		.loc 1 585 5 is_stmt 1 view .LVU141
 585:Drivers/STM32H7xx_HAL_Driver/Src/stm32h7xx_hal_dac.c ****        
 514              		.loc 1 585 9 is_stmt 0 view .LVU142
 515 0088 C568     		ldr	r5, [r0, #12]
 585:Drivers/STM32H7xx_HAL_Driver/Src/stm32h7xx_hal_dac.c ****        
 516              		.loc 1 585 45 view .LVU143
 517 008a 174E     		ldr	r6, .L47+16
 518 008c 2E64     		str	r6, [r5, #64]
 588:Drivers/STM32H7xx_HAL_Driver/Src/stm32h7xx_hal_dac.c ****     
 519              		.loc 1 588 5 is_stmt 1 view .LVU144
 588:Drivers/STM32H7xx_HAL_Driver/Src/stm32h7xx_hal_dac.c ****     
 520              		.loc 1 588 9 is_stmt 0 view .LVU145
 521 008e C568     		ldr	r5, [r0, #12]
 588:Drivers/STM32H7xx_HAL_Driver/Src/stm32h7xx_hal_dac.c ****     
 522              		.loc 1 588 42 view .LVU146
 523 0090 164E     		ldr	r6, .L47+20
 524 0092 EE64     		str	r6, [r5, #76]
 591:Drivers/STM32H7xx_HAL_Driver/Src/stm32h7xx_hal_dac.c ****     
 525              		.loc 1 591 5 is_stmt 1 view .LVU147
 526 0094 0668     		ldr	r6, [r0]
 527 0096 3568     		ldr	r5, [r6]
 528 0098 45F08055 		orr	r5, r5, #268435456
 529 009c 3560     		str	r5, [r6]
 594:Drivers/STM32H7xx_HAL_Driver/Src/stm32h7xx_hal_dac.c ****     {
 530              		.loc 1 594 5 view .LVU148
 531 009e 042C     		cmp	r4, #4
 532 00a0 07D0     		beq	.L37
 533 00a2 082C     		cmp	r4, #8
 534 00a4 08D0     		beq	.L38
 535 00a6 0CB1     		cbz	r4, .L46
 534:Drivers/STM32H7xx_HAL_Driver/Src/stm32h7xx_hal_dac.c ****     
 536              		.loc 1 534 12 is_stmt 0 view .LVU149
 537 00a8 0026     		movs	r6, #0
 538 00aa C8E7     		b	.L36
 539              	.L46:
 598:Drivers/STM32H7xx_HAL_Driver/Src/stm32h7xx_hal_dac.c ****         break;
 540              		.loc 1 598 9 is_stmt 1 view .LVU150
 598:Drivers/STM32H7xx_HAL_Driver/Src/stm32h7xx_hal_dac.c ****         break;
 541              		.loc 1 598 33 is_stmt 0 view .LVU151
 542 00ac 0668     		ldr	r6, [r0]
 598:Drivers/STM32H7xx_HAL_Driver/Src/stm32h7xx_hal_dac.c ****         break;
 543              		.loc 1 598 28 view .LVU152
 544 00ae 1436     		adds	r6, r6, #20
 545              	.LVL36:
 599:Drivers/STM32H7xx_HAL_Driver/Src/stm32h7xx_hal_dac.c ****       case DAC_ALIGN_12B_L:
 546              		.loc 1 599 9 is_stmt 1 view .LVU153
 547 00b0 C5E7     		b	.L36
 548              	.LVL37:
ARM GAS  /tmp/cc0KkzsK.s 			page 23


 549              	.L37:
 602:Drivers/STM32H7xx_HAL_Driver/Src/stm32h7xx_hal_dac.c ****         break;
 550              		.loc 1 602 9 view .LVU154
 602:Drivers/STM32H7xx_HAL_Driver/Src/stm32h7xx_hal_dac.c ****         break;
 551              		.loc 1 602 33 is_stmt 0 view .LVU155
 552 00b2 0668     		ldr	r6, [r0]
 602:Drivers/STM32H7xx_HAL_Driver/Src/stm32h7xx_hal_dac.c ****         break;
 553              		.loc 1 602 28 view .LVU156
 554 00b4 1836     		adds	r6, r6, #24
 555              	.LVL38:
 603:Drivers/STM32H7xx_HAL_Driver/Src/stm32h7xx_hal_dac.c ****       case DAC_ALIGN_8B_R:
 556              		.loc 1 603 9 is_stmt 1 view .LVU157
 557 00b6 C2E7     		b	.L36
 558              	.LVL39:
 559              	.L38:
 606:Drivers/STM32H7xx_HAL_Driver/Src/stm32h7xx_hal_dac.c ****         break;
 560              		.loc 1 606 9 view .LVU158
 606:Drivers/STM32H7xx_HAL_Driver/Src/stm32h7xx_hal_dac.c ****         break;
 561              		.loc 1 606 33 is_stmt 0 view .LVU159
 562 00b8 0668     		ldr	r6, [r0]
 606:Drivers/STM32H7xx_HAL_Driver/Src/stm32h7xx_hal_dac.c ****         break;
 563              		.loc 1 606 28 view .LVU160
 564 00ba 1C36     		adds	r6, r6, #28
 565              	.LVL40:
 607:Drivers/STM32H7xx_HAL_Driver/Src/stm32h7xx_hal_dac.c ****       default:
 566              		.loc 1 607 9 is_stmt 1 view .LVU161
 567 00bc BFE7     		b	.L36
 568              	.L39:
 625:Drivers/STM32H7xx_HAL_Driver/Src/stm32h7xx_hal_dac.c ****     
 569              		.loc 1 625 5 view .LVU162
 570 00be 0168     		ldr	r1, [r0]
 571              	.LVL41:
 625:Drivers/STM32H7xx_HAL_Driver/Src/stm32h7xx_hal_dac.c ****     
 572              		.loc 1 625 5 is_stmt 0 view .LVU163
 573 00c0 0A68     		ldr	r2, [r1]
 574              	.LVL42:
 625:Drivers/STM32H7xx_HAL_Driver/Src/stm32h7xx_hal_dac.c ****     
 575              		.loc 1 625 5 view .LVU164
 576 00c2 42F00052 		orr	r2, r2, #536870912
 577 00c6 0A60     		str	r2, [r1]
 628:Drivers/STM32H7xx_HAL_Driver/Src/stm32h7xx_hal_dac.c ****   }
 578              		.loc 1 628 5 is_stmt 1 view .LVU165
 579 00c8 3246     		mov	r2, r6
 580 00ca 3946     		mov	r1, r7
 581 00cc C068     		ldr	r0, [r0, #12]
 582              	.LVL43:
 628:Drivers/STM32H7xx_HAL_Driver/Src/stm32h7xx_hal_dac.c ****   }
 583              		.loc 1 628 5 is_stmt 0 view .LVU166
 584 00ce FFF7FEFF 		bl	HAL_DMA_Start_IT
 585              	.LVL44:
 628:Drivers/STM32H7xx_HAL_Driver/Src/stm32h7xx_hal_dac.c ****   }
 586              		.loc 1 628 5 view .LVU167
 587 00d2 C3E7     		b	.L40
 588              	.LVL45:
 589              	.L41:
 541:Drivers/STM32H7xx_HAL_Driver/Src/stm32h7xx_hal_dac.c ****   
 590              		.loc 1 541 3 view .LVU168
ARM GAS  /tmp/cc0KkzsK.s 			page 24


 591 00d4 0220     		movs	r0, #2
 592              	.LVL46:
 541:Drivers/STM32H7xx_HAL_Driver/Src/stm32h7xx_hal_dac.c ****   
 593              		.loc 1 541 3 view .LVU169
 594 00d6 CAE7     		b	.L32
 595              	.L48:
 596              		.align	2
 597              	.L47:
 598 00d8 00000000 		.word	DAC_DMAConvCpltCh1
 599 00dc 00000000 		.word	DAC_DMAHalfConvCpltCh1
 600 00e0 00000000 		.word	DAC_DMAErrorCh1
 601 00e4 00000000 		.word	DAC_DMAConvCpltCh2
 602 00e8 00000000 		.word	DAC_DMAHalfConvCpltCh2
 603 00ec 00000000 		.word	DAC_DMAErrorCh2
 604              		.cfi_endproc
 605              	.LFE143:
 607              		.section	.text.HAL_DAC_Stop_DMA,"ax",%progbits
 608              		.align	1
 609              		.global	HAL_DAC_Stop_DMA
 610              		.syntax unified
 611              		.thumb
 612              		.thumb_func
 613              		.fpu fpv5-d16
 615              	HAL_DAC_Stop_DMA:
 616              	.LVL47:
 617              	.LFB144:
 641:Drivers/STM32H7xx_HAL_Driver/Src/stm32h7xx_hal_dac.c ****  
 642:Drivers/STM32H7xx_HAL_Driver/Src/stm32h7xx_hal_dac.c **** /**
 643:Drivers/STM32H7xx_HAL_Driver/Src/stm32h7xx_hal_dac.c ****   * @brief  Disable DAC and stop conversion of channel.
 644:Drivers/STM32H7xx_HAL_Driver/Src/stm32h7xx_hal_dac.c ****   * @param  hdac: pointer to a DAC_HandleTypeDef structure that contains
 645:Drivers/STM32H7xx_HAL_Driver/Src/stm32h7xx_hal_dac.c ****   *         the configuration information for the specified DAC.
 646:Drivers/STM32H7xx_HAL_Driver/Src/stm32h7xx_hal_dac.c ****   * @param  Channel: The selected DAC channel. 
 647:Drivers/STM32H7xx_HAL_Driver/Src/stm32h7xx_hal_dac.c ****   *          This parameter can be one of the following values:
 648:Drivers/STM32H7xx_HAL_Driver/Src/stm32h7xx_hal_dac.c ****   *            @arg DAC_CHANNEL_1: DAC Channel1 selected
 649:Drivers/STM32H7xx_HAL_Driver/Src/stm32h7xx_hal_dac.c ****   *            @arg DAC_CHANNEL_2: DAC Channel2 selected   
 650:Drivers/STM32H7xx_HAL_Driver/Src/stm32h7xx_hal_dac.c ****   * @retval HAL status
 651:Drivers/STM32H7xx_HAL_Driver/Src/stm32h7xx_hal_dac.c ****   */
 652:Drivers/STM32H7xx_HAL_Driver/Src/stm32h7xx_hal_dac.c **** HAL_StatusTypeDef HAL_DAC_Stop_DMA(DAC_HandleTypeDef* hdac, uint32_t Channel)
 653:Drivers/STM32H7xx_HAL_Driver/Src/stm32h7xx_hal_dac.c **** {
 618              		.loc 1 653 1 is_stmt 1 view -0
 619              		.cfi_startproc
 620              		@ args = 0, pretend = 0, frame = 0
 621              		@ frame_needed = 0, uses_anonymous_args = 0
 622              		.loc 1 653 1 is_stmt 0 view .LVU171
 623 0000 10B5     		push	{r4, lr}
 624              	.LCFI11:
 625              		.cfi_def_cfa_offset 8
 626              		.cfi_offset 4, -8
 627              		.cfi_offset 14, -4
 628 0002 0446     		mov	r4, r0
 654:Drivers/STM32H7xx_HAL_Driver/Src/stm32h7xx_hal_dac.c ****    HAL_StatusTypeDef status = HAL_OK;
 629              		.loc 1 654 4 is_stmt 1 view .LVU172
 630              	.LVL48:
 655:Drivers/STM32H7xx_HAL_Driver/Src/stm32h7xx_hal_dac.c ****     
 656:Drivers/STM32H7xx_HAL_Driver/Src/stm32h7xx_hal_dac.c ****   /* Check the parameters */
 657:Drivers/STM32H7xx_HAL_Driver/Src/stm32h7xx_hal_dac.c ****   assert_param(IS_DAC_CHANNEL(Channel));
 631              		.loc 1 657 3 view .LVU173
ARM GAS  /tmp/cc0KkzsK.s 			page 25


 658:Drivers/STM32H7xx_HAL_Driver/Src/stm32h7xx_hal_dac.c ****   
 659:Drivers/STM32H7xx_HAL_Driver/Src/stm32h7xx_hal_dac.c ****   /* Disable the selected DAC channel DMA request */
 660:Drivers/STM32H7xx_HAL_Driver/Src/stm32h7xx_hal_dac.c ****     hdac->Instance->CR &= ~(DAC_CR_DMAEN1 << Channel);
 632              		.loc 1 660 5 view .LVU174
 633              		.loc 1 660 9 is_stmt 0 view .LVU175
 634 0004 0068     		ldr	r0, [r0]
 635              	.LVL49:
 636              		.loc 1 660 24 view .LVU176
 637 0006 0368     		ldr	r3, [r0]
 638              		.loc 1 660 43 view .LVU177
 639 0008 4FF48052 		mov	r2, #4096
 640 000c 8A40     		lsls	r2, r2, r1
 641              		.loc 1 660 24 view .LVU178
 642 000e 23EA0203 		bic	r3, r3, r2
 643 0012 0360     		str	r3, [r0]
 661:Drivers/STM32H7xx_HAL_Driver/Src/stm32h7xx_hal_dac.c ****     
 662:Drivers/STM32H7xx_HAL_Driver/Src/stm32h7xx_hal_dac.c ****   /* Disable the Peripheral */
 663:Drivers/STM32H7xx_HAL_Driver/Src/stm32h7xx_hal_dac.c ****   __HAL_DAC_DISABLE(hdac, Channel);
 644              		.loc 1 663 3 is_stmt 1 view .LVU179
 645 0014 2068     		ldr	r0, [r4]
 646 0016 0368     		ldr	r3, [r0]
 647 0018 0122     		movs	r2, #1
 648 001a 8A40     		lsls	r2, r2, r1
 649 001c 23EA0203 		bic	r3, r3, r2
 650 0020 0360     		str	r3, [r0]
 664:Drivers/STM32H7xx_HAL_Driver/Src/stm32h7xx_hal_dac.c ****   
 665:Drivers/STM32H7xx_HAL_Driver/Src/stm32h7xx_hal_dac.c ****   /* Disable the DMA stream */
 666:Drivers/STM32H7xx_HAL_Driver/Src/stm32h7xx_hal_dac.c ****   /* Channel1 is used */
 667:Drivers/STM32H7xx_HAL_Driver/Src/stm32h7xx_hal_dac.c ****   if (Channel == DAC_CHANNEL_1)
 651              		.loc 1 667 3 view .LVU180
 652              		.loc 1 667 6 is_stmt 0 view .LVU181
 653 0022 59B9     		cbnz	r1, .L50
 668:Drivers/STM32H7xx_HAL_Driver/Src/stm32h7xx_hal_dac.c ****   {
 669:Drivers/STM32H7xx_HAL_Driver/Src/stm32h7xx_hal_dac.c ****     /* Disable the DMA stream */
 670:Drivers/STM32H7xx_HAL_Driver/Src/stm32h7xx_hal_dac.c ****     status = HAL_DMA_Abort(hdac->DMA_Handle1); 
 654              		.loc 1 670 5 is_stmt 1 view .LVU182
 655              		.loc 1 670 14 is_stmt 0 view .LVU183
 656 0024 A068     		ldr	r0, [r4, #8]
 657 0026 FFF7FEFF 		bl	HAL_DMA_Abort
 658              	.LVL50:
 671:Drivers/STM32H7xx_HAL_Driver/Src/stm32h7xx_hal_dac.c ****     /* Disable the DAC DMA underrun interrupt */
 672:Drivers/STM32H7xx_HAL_Driver/Src/stm32h7xx_hal_dac.c ****     __HAL_DAC_DISABLE_IT(hdac, DAC_IT_DMAUDR1);
 659              		.loc 1 672 5 is_stmt 1 view .LVU184
 660 002a 2268     		ldr	r2, [r4]
 661 002c 1368     		ldr	r3, [r2]
 662 002e 23F40053 		bic	r3, r3, #8192
 663 0032 1360     		str	r3, [r2]
 664              	.L51:
 673:Drivers/STM32H7xx_HAL_Driver/Src/stm32h7xx_hal_dac.c ****   }
 674:Drivers/STM32H7xx_HAL_Driver/Src/stm32h7xx_hal_dac.c ****   else /* Channel2 is used for */
 675:Drivers/STM32H7xx_HAL_Driver/Src/stm32h7xx_hal_dac.c ****   {
 676:Drivers/STM32H7xx_HAL_Driver/Src/stm32h7xx_hal_dac.c ****     /* Disable the DMA stream */
 677:Drivers/STM32H7xx_HAL_Driver/Src/stm32h7xx_hal_dac.c ****     status = HAL_DMA_Abort(hdac->DMA_Handle2);   
 678:Drivers/STM32H7xx_HAL_Driver/Src/stm32h7xx_hal_dac.c ****   /* Disable the DAC DMA underrun interrupt */
 679:Drivers/STM32H7xx_HAL_Driver/Src/stm32h7xx_hal_dac.c ****     __HAL_DAC_DISABLE_IT(hdac, DAC_IT_DMAUDR2);
 680:Drivers/STM32H7xx_HAL_Driver/Src/stm32h7xx_hal_dac.c ****   }
 681:Drivers/STM32H7xx_HAL_Driver/Src/stm32h7xx_hal_dac.c ****   
ARM GAS  /tmp/cc0KkzsK.s 			page 26


 682:Drivers/STM32H7xx_HAL_Driver/Src/stm32h7xx_hal_dac.c ****   /* Check if DMA Channel effectively disabled */
 683:Drivers/STM32H7xx_HAL_Driver/Src/stm32h7xx_hal_dac.c ****   if (status != HAL_OK)
 665              		.loc 1 683 3 view .LVU185
 666              		.loc 1 683 6 is_stmt 0 view .LVU186
 667 0034 58B1     		cbz	r0, .L52
 684:Drivers/STM32H7xx_HAL_Driver/Src/stm32h7xx_hal_dac.c ****   {
 685:Drivers/STM32H7xx_HAL_Driver/Src/stm32h7xx_hal_dac.c ****     /* Update DAC state machine to error */
 686:Drivers/STM32H7xx_HAL_Driver/Src/stm32h7xx_hal_dac.c ****     hdac->State = HAL_DAC_STATE_ERROR;      
 668              		.loc 1 686 5 is_stmt 1 view .LVU187
 669              		.loc 1 686 17 is_stmt 0 view .LVU188
 670 0036 0423     		movs	r3, #4
 671 0038 2371     		strb	r3, [r4, #4]
 672              	.L53:
 687:Drivers/STM32H7xx_HAL_Driver/Src/stm32h7xx_hal_dac.c ****   }
 688:Drivers/STM32H7xx_HAL_Driver/Src/stm32h7xx_hal_dac.c ****   else
 689:Drivers/STM32H7xx_HAL_Driver/Src/stm32h7xx_hal_dac.c ****   {
 690:Drivers/STM32H7xx_HAL_Driver/Src/stm32h7xx_hal_dac.c ****     /* Change DAC state */
 691:Drivers/STM32H7xx_HAL_Driver/Src/stm32h7xx_hal_dac.c ****     hdac->State = HAL_DAC_STATE_READY;
 692:Drivers/STM32H7xx_HAL_Driver/Src/stm32h7xx_hal_dac.c ****   }
 693:Drivers/STM32H7xx_HAL_Driver/Src/stm32h7xx_hal_dac.c ****   
 694:Drivers/STM32H7xx_HAL_Driver/Src/stm32h7xx_hal_dac.c ****   /* Return function status */
 695:Drivers/STM32H7xx_HAL_Driver/Src/stm32h7xx_hal_dac.c ****   return status;
 673              		.loc 1 695 3 is_stmt 1 view .LVU189
 696:Drivers/STM32H7xx_HAL_Driver/Src/stm32h7xx_hal_dac.c **** }
 674              		.loc 1 696 1 is_stmt 0 view .LVU190
 675 003a 10BD     		pop	{r4, pc}
 676              	.LVL51:
 677              	.L50:
 677:Drivers/STM32H7xx_HAL_Driver/Src/stm32h7xx_hal_dac.c ****   /* Disable the DAC DMA underrun interrupt */
 678              		.loc 1 677 5 is_stmt 1 view .LVU191
 677:Drivers/STM32H7xx_HAL_Driver/Src/stm32h7xx_hal_dac.c ****   /* Disable the DAC DMA underrun interrupt */
 679              		.loc 1 677 14 is_stmt 0 view .LVU192
 680 003c E068     		ldr	r0, [r4, #12]
 681 003e FFF7FEFF 		bl	HAL_DMA_Abort
 682              	.LVL52:
 679:Drivers/STM32H7xx_HAL_Driver/Src/stm32h7xx_hal_dac.c ****   }
 683              		.loc 1 679 5 is_stmt 1 view .LVU193
 684 0042 2268     		ldr	r2, [r4]
 685 0044 1368     		ldr	r3, [r2]
 686 0046 23F00053 		bic	r3, r3, #536870912
 687 004a 1360     		str	r3, [r2]
 688 004c F2E7     		b	.L51
 689              	.L52:
 691:Drivers/STM32H7xx_HAL_Driver/Src/stm32h7xx_hal_dac.c ****   }
 690              		.loc 1 691 5 view .LVU194
 691:Drivers/STM32H7xx_HAL_Driver/Src/stm32h7xx_hal_dac.c ****   }
 691              		.loc 1 691 17 is_stmt 0 view .LVU195
 692 004e 0123     		movs	r3, #1
 693 0050 2371     		strb	r3, [r4, #4]
 694 0052 F2E7     		b	.L53
 695              		.cfi_endproc
 696              	.LFE144:
 698              		.section	.text.HAL_DAC_SetValue,"ax",%progbits
 699              		.align	1
 700              		.global	HAL_DAC_SetValue
 701              		.syntax unified
 702              		.thumb
ARM GAS  /tmp/cc0KkzsK.s 			page 27


 703              		.thumb_func
 704              		.fpu fpv5-d16
 706              	HAL_DAC_SetValue:
 707              	.LVL53:
 708              	.LFB146:
 697:Drivers/STM32H7xx_HAL_Driver/Src/stm32h7xx_hal_dac.c **** 
 698:Drivers/STM32H7xx_HAL_Driver/Src/stm32h7xx_hal_dac.c **** /**
 699:Drivers/STM32H7xx_HAL_Driver/Src/stm32h7xx_hal_dac.c ****   * @brief  Handle DAC interrupt request
 700:Drivers/STM32H7xx_HAL_Driver/Src/stm32h7xx_hal_dac.c ****   *         This function uses the interruption of DMA
 701:Drivers/STM32H7xx_HAL_Driver/Src/stm32h7xx_hal_dac.c ****   *         underrun.  
 702:Drivers/STM32H7xx_HAL_Driver/Src/stm32h7xx_hal_dac.c ****   * @param  hdac: pointer to a DAC_HandleTypeDef structure that contains
 703:Drivers/STM32H7xx_HAL_Driver/Src/stm32h7xx_hal_dac.c ****   *         the configuration information for the specified DAC.
 704:Drivers/STM32H7xx_HAL_Driver/Src/stm32h7xx_hal_dac.c ****   * @retval None
 705:Drivers/STM32H7xx_HAL_Driver/Src/stm32h7xx_hal_dac.c ****   */
 706:Drivers/STM32H7xx_HAL_Driver/Src/stm32h7xx_hal_dac.c **** void HAL_DAC_IRQHandler(DAC_HandleTypeDef* hdac)
 707:Drivers/STM32H7xx_HAL_Driver/Src/stm32h7xx_hal_dac.c **** {
 708:Drivers/STM32H7xx_HAL_Driver/Src/stm32h7xx_hal_dac.c ****   if(__HAL_DAC_GET_IT_SOURCE(hdac, DAC_IT_DMAUDR1))
 709:Drivers/STM32H7xx_HAL_Driver/Src/stm32h7xx_hal_dac.c ****   { 
 710:Drivers/STM32H7xx_HAL_Driver/Src/stm32h7xx_hal_dac.c ****     /* Check underrun flag of DAC channel 1 */
 711:Drivers/STM32H7xx_HAL_Driver/Src/stm32h7xx_hal_dac.c ****     if(__HAL_DAC_GET_FLAG(hdac, DAC_FLAG_DMAUDR1))
 712:Drivers/STM32H7xx_HAL_Driver/Src/stm32h7xx_hal_dac.c ****     {
 713:Drivers/STM32H7xx_HAL_Driver/Src/stm32h7xx_hal_dac.c ****       /* Change DAC state to error state */
 714:Drivers/STM32H7xx_HAL_Driver/Src/stm32h7xx_hal_dac.c ****       hdac->State = HAL_DAC_STATE_ERROR;
 715:Drivers/STM32H7xx_HAL_Driver/Src/stm32h7xx_hal_dac.c ****       
 716:Drivers/STM32H7xx_HAL_Driver/Src/stm32h7xx_hal_dac.c ****       /* Set DAC error code to chanel1 DMA underrun error */
 717:Drivers/STM32H7xx_HAL_Driver/Src/stm32h7xx_hal_dac.c ****       SET_BIT(hdac->ErrorCode, HAL_DAC_ERROR_DMAUNDERRUNCH1);
 718:Drivers/STM32H7xx_HAL_Driver/Src/stm32h7xx_hal_dac.c ****       
 719:Drivers/STM32H7xx_HAL_Driver/Src/stm32h7xx_hal_dac.c ****       /* Clear the underrun flag */
 720:Drivers/STM32H7xx_HAL_Driver/Src/stm32h7xx_hal_dac.c ****       __HAL_DAC_CLEAR_FLAG(hdac,DAC_FLAG_DMAUDR1);
 721:Drivers/STM32H7xx_HAL_Driver/Src/stm32h7xx_hal_dac.c ****       
 722:Drivers/STM32H7xx_HAL_Driver/Src/stm32h7xx_hal_dac.c ****       /* Disable the selected DAC channel1 DMA request */
 723:Drivers/STM32H7xx_HAL_Driver/Src/stm32h7xx_hal_dac.c ****       CLEAR_BIT(hdac->Instance->CR, DAC_CR_DMAEN1);
 724:Drivers/STM32H7xx_HAL_Driver/Src/stm32h7xx_hal_dac.c ****       
 725:Drivers/STM32H7xx_HAL_Driver/Src/stm32h7xx_hal_dac.c ****       /* Error callback */ 
 726:Drivers/STM32H7xx_HAL_Driver/Src/stm32h7xx_hal_dac.c ****       HAL_DAC_DMAUnderrunCallbackCh1(hdac);
 727:Drivers/STM32H7xx_HAL_Driver/Src/stm32h7xx_hal_dac.c ****     }
 728:Drivers/STM32H7xx_HAL_Driver/Src/stm32h7xx_hal_dac.c ****   }
 729:Drivers/STM32H7xx_HAL_Driver/Src/stm32h7xx_hal_dac.c ****   if(__HAL_DAC_GET_IT_SOURCE(hdac, DAC_IT_DMAUDR2))
 730:Drivers/STM32H7xx_HAL_Driver/Src/stm32h7xx_hal_dac.c ****   {
 731:Drivers/STM32H7xx_HAL_Driver/Src/stm32h7xx_hal_dac.c ****     /* Check underrun flag of DAC channel 1 */
 732:Drivers/STM32H7xx_HAL_Driver/Src/stm32h7xx_hal_dac.c ****     if(__HAL_DAC_GET_FLAG(hdac, DAC_FLAG_DMAUDR2))
 733:Drivers/STM32H7xx_HAL_Driver/Src/stm32h7xx_hal_dac.c ****     {
 734:Drivers/STM32H7xx_HAL_Driver/Src/stm32h7xx_hal_dac.c ****       /* Change DAC state to error state */
 735:Drivers/STM32H7xx_HAL_Driver/Src/stm32h7xx_hal_dac.c ****       hdac->State = HAL_DAC_STATE_ERROR;
 736:Drivers/STM32H7xx_HAL_Driver/Src/stm32h7xx_hal_dac.c ****       
 737:Drivers/STM32H7xx_HAL_Driver/Src/stm32h7xx_hal_dac.c ****       /* Set DAC error code to channel2 DMA underrun error */
 738:Drivers/STM32H7xx_HAL_Driver/Src/stm32h7xx_hal_dac.c ****       SET_BIT(hdac->ErrorCode, HAL_DAC_ERROR_DMAUNDERRUNCH2);
 739:Drivers/STM32H7xx_HAL_Driver/Src/stm32h7xx_hal_dac.c ****       
 740:Drivers/STM32H7xx_HAL_Driver/Src/stm32h7xx_hal_dac.c ****       /* Clear the underrun flag */
 741:Drivers/STM32H7xx_HAL_Driver/Src/stm32h7xx_hal_dac.c ****       __HAL_DAC_CLEAR_FLAG(hdac,DAC_FLAG_DMAUDR2);
 742:Drivers/STM32H7xx_HAL_Driver/Src/stm32h7xx_hal_dac.c ****       
 743:Drivers/STM32H7xx_HAL_Driver/Src/stm32h7xx_hal_dac.c ****       /* Disable the selected DAC channel1 DMA request */
 744:Drivers/STM32H7xx_HAL_Driver/Src/stm32h7xx_hal_dac.c ****       CLEAR_BIT(hdac->Instance->CR, DAC_CR_DMAEN2);
 745:Drivers/STM32H7xx_HAL_Driver/Src/stm32h7xx_hal_dac.c ****       
 746:Drivers/STM32H7xx_HAL_Driver/Src/stm32h7xx_hal_dac.c ****       /* Error callback */ 
 747:Drivers/STM32H7xx_HAL_Driver/Src/stm32h7xx_hal_dac.c ****       HAL_DACEx_DMAUnderrunCallbackCh2(hdac);
 748:Drivers/STM32H7xx_HAL_Driver/Src/stm32h7xx_hal_dac.c ****     }
ARM GAS  /tmp/cc0KkzsK.s 			page 28


 749:Drivers/STM32H7xx_HAL_Driver/Src/stm32h7xx_hal_dac.c ****   }
 750:Drivers/STM32H7xx_HAL_Driver/Src/stm32h7xx_hal_dac.c **** }
 751:Drivers/STM32H7xx_HAL_Driver/Src/stm32h7xx_hal_dac.c **** 
 752:Drivers/STM32H7xx_HAL_Driver/Src/stm32h7xx_hal_dac.c **** /**
 753:Drivers/STM32H7xx_HAL_Driver/Src/stm32h7xx_hal_dac.c ****   * @brief  Set the specified data holding register value for DAC channel.
 754:Drivers/STM32H7xx_HAL_Driver/Src/stm32h7xx_hal_dac.c ****   * @param  hdac: pointer to a DAC_HandleTypeDef structure that contains
 755:Drivers/STM32H7xx_HAL_Driver/Src/stm32h7xx_hal_dac.c ****   *         the configuration information for the specified DAC.
 756:Drivers/STM32H7xx_HAL_Driver/Src/stm32h7xx_hal_dac.c ****   * @param  Channel: The selected DAC channel. 
 757:Drivers/STM32H7xx_HAL_Driver/Src/stm32h7xx_hal_dac.c ****   *          This parameter can be one of the following values:
 758:Drivers/STM32H7xx_HAL_Driver/Src/stm32h7xx_hal_dac.c ****   *            @arg DAC_CHANNEL_1: DAC Channel1 selected
 759:Drivers/STM32H7xx_HAL_Driver/Src/stm32h7xx_hal_dac.c ****   *            @arg DAC_CHANNEL_2: DAC Channel2 selected  
 760:Drivers/STM32H7xx_HAL_Driver/Src/stm32h7xx_hal_dac.c ****   * @param  Alignment: Specifies the data alignment.
 761:Drivers/STM32H7xx_HAL_Driver/Src/stm32h7xx_hal_dac.c ****   *          This parameter can be one of the following values:
 762:Drivers/STM32H7xx_HAL_Driver/Src/stm32h7xx_hal_dac.c ****   *            @arg DAC_ALIGN_8B_R: 8bit right data alignment selected
 763:Drivers/STM32H7xx_HAL_Driver/Src/stm32h7xx_hal_dac.c ****   *            @arg DAC_ALIGN_12B_L: 12bit left data alignment selected
 764:Drivers/STM32H7xx_HAL_Driver/Src/stm32h7xx_hal_dac.c ****   *            @arg DAC_ALIGN_12B_R: 12bit right data alignment selected
 765:Drivers/STM32H7xx_HAL_Driver/Src/stm32h7xx_hal_dac.c ****   * @param  Data: Data to be loaded in the selected data holding register.
 766:Drivers/STM32H7xx_HAL_Driver/Src/stm32h7xx_hal_dac.c ****   * @retval HAL status
 767:Drivers/STM32H7xx_HAL_Driver/Src/stm32h7xx_hal_dac.c ****   */
 768:Drivers/STM32H7xx_HAL_Driver/Src/stm32h7xx_hal_dac.c **** HAL_StatusTypeDef HAL_DAC_SetValue(DAC_HandleTypeDef* hdac, uint32_t Channel, uint32_t Alignment, u
 769:Drivers/STM32H7xx_HAL_Driver/Src/stm32h7xx_hal_dac.c **** {  
 709              		.loc 1 769 1 is_stmt 1 view -0
 710              		.cfi_startproc
 711              		@ args = 0, pretend = 0, frame = 8
 712              		@ frame_needed = 0, uses_anonymous_args = 0
 713              		@ link register save eliminated.
 714              		.loc 1 769 1 is_stmt 0 view .LVU197
 715 0000 10B4     		push	{r4}
 716              	.LCFI12:
 717              		.cfi_def_cfa_offset 4
 718              		.cfi_offset 4, -4
 719 0002 83B0     		sub	sp, sp, #12
 720              	.LCFI13:
 721              		.cfi_def_cfa_offset 16
 770:Drivers/STM32H7xx_HAL_Driver/Src/stm32h7xx_hal_dac.c ****   __IO uint32_t tmp = 0;
 722              		.loc 1 770 3 is_stmt 1 view .LVU198
 723              		.loc 1 770 17 is_stmt 0 view .LVU199
 724 0004 0024     		movs	r4, #0
 725 0006 0194     		str	r4, [sp, #4]
 771:Drivers/STM32H7xx_HAL_Driver/Src/stm32h7xx_hal_dac.c ****   
 772:Drivers/STM32H7xx_HAL_Driver/Src/stm32h7xx_hal_dac.c ****   /* Check the parameters */
 773:Drivers/STM32H7xx_HAL_Driver/Src/stm32h7xx_hal_dac.c ****   assert_param(IS_DAC_CHANNEL(Channel));
 726              		.loc 1 773 3 is_stmt 1 view .LVU200
 774:Drivers/STM32H7xx_HAL_Driver/Src/stm32h7xx_hal_dac.c ****   assert_param(IS_DAC_ALIGN(Alignment));
 727              		.loc 1 774 3 view .LVU201
 775:Drivers/STM32H7xx_HAL_Driver/Src/stm32h7xx_hal_dac.c ****   assert_param(IS_DAC_DATA(Data));
 728              		.loc 1 775 3 view .LVU202
 776:Drivers/STM32H7xx_HAL_Driver/Src/stm32h7xx_hal_dac.c ****   
 777:Drivers/STM32H7xx_HAL_Driver/Src/stm32h7xx_hal_dac.c ****   tmp = (uint32_t)hdac->Instance; 
 729              		.loc 1 777 3 view .LVU203
 730              		.loc 1 777 23 is_stmt 0 view .LVU204
 731 0008 0068     		ldr	r0, [r0]
 732              	.LVL54:
 733              		.loc 1 777 7 view .LVU205
 734 000a 0190     		str	r0, [sp, #4]
 778:Drivers/STM32H7xx_HAL_Driver/Src/stm32h7xx_hal_dac.c ****   if(Channel == DAC_CHANNEL_1)
 735              		.loc 1 778 3 is_stmt 1 view .LVU206
ARM GAS  /tmp/cc0KkzsK.s 			page 29


 736              		.loc 1 778 5 is_stmt 0 view .LVU207
 737 000c 51B9     		cbnz	r1, .L56
 779:Drivers/STM32H7xx_HAL_Driver/Src/stm32h7xx_hal_dac.c ****   {
 780:Drivers/STM32H7xx_HAL_Driver/Src/stm32h7xx_hal_dac.c ****     tmp += DAC_DHR12R1_ALIGNMENT(Alignment);
 738              		.loc 1 780 5 is_stmt 1 view .LVU208
 739              		.loc 1 780 9 is_stmt 0 view .LVU209
 740 000e 0199     		ldr	r1, [sp, #4]
 741              	.LVL55:
 742              		.loc 1 780 9 view .LVU210
 743 0010 1144     		add	r1, r1, r2
 744 0012 0831     		adds	r1, r1, #8
 745 0014 0191     		str	r1, [sp, #4]
 746              	.L57:
 781:Drivers/STM32H7xx_HAL_Driver/Src/stm32h7xx_hal_dac.c ****   }
 782:Drivers/STM32H7xx_HAL_Driver/Src/stm32h7xx_hal_dac.c ****   else
 783:Drivers/STM32H7xx_HAL_Driver/Src/stm32h7xx_hal_dac.c ****   {
 784:Drivers/STM32H7xx_HAL_Driver/Src/stm32h7xx_hal_dac.c ****     tmp += DAC_DHR12R2_ALIGNMENT(Alignment);
 785:Drivers/STM32H7xx_HAL_Driver/Src/stm32h7xx_hal_dac.c ****   }
 786:Drivers/STM32H7xx_HAL_Driver/Src/stm32h7xx_hal_dac.c **** 
 787:Drivers/STM32H7xx_HAL_Driver/Src/stm32h7xx_hal_dac.c ****   /* Set the DAC channel selected data holding register */
 788:Drivers/STM32H7xx_HAL_Driver/Src/stm32h7xx_hal_dac.c ****   *(__IO uint32_t *) tmp = Data;
 747              		.loc 1 788 3 is_stmt 1 view .LVU211
 748              		.loc 1 788 4 is_stmt 0 view .LVU212
 749 0016 019A     		ldr	r2, [sp, #4]
 750              	.LVL56:
 751              		.loc 1 788 26 view .LVU213
 752 0018 1360     		str	r3, [r2]
 789:Drivers/STM32H7xx_HAL_Driver/Src/stm32h7xx_hal_dac.c ****   
 790:Drivers/STM32H7xx_HAL_Driver/Src/stm32h7xx_hal_dac.c ****   /* Return function status */
 791:Drivers/STM32H7xx_HAL_Driver/Src/stm32h7xx_hal_dac.c ****   return HAL_OK;
 753              		.loc 1 791 3 is_stmt 1 view .LVU214
 792:Drivers/STM32H7xx_HAL_Driver/Src/stm32h7xx_hal_dac.c **** }
 754              		.loc 1 792 1 is_stmt 0 view .LVU215
 755 001a 0020     		movs	r0, #0
 756 001c 03B0     		add	sp, sp, #12
 757              	.LCFI14:
 758              		.cfi_remember_state
 759              		.cfi_def_cfa_offset 4
 760              		@ sp needed
 761 001e 5DF8044B 		ldr	r4, [sp], #4
 762              	.LCFI15:
 763              		.cfi_restore 4
 764              		.cfi_def_cfa_offset 0
 765 0022 7047     		bx	lr
 766              	.LVL57:
 767              	.L56:
 768              	.LCFI16:
 769              		.cfi_restore_state
 784:Drivers/STM32H7xx_HAL_Driver/Src/stm32h7xx_hal_dac.c ****   }
 770              		.loc 1 784 5 is_stmt 1 view .LVU216
 784:Drivers/STM32H7xx_HAL_Driver/Src/stm32h7xx_hal_dac.c ****   }
 771              		.loc 1 784 9 is_stmt 0 view .LVU217
 772 0024 0199     		ldr	r1, [sp, #4]
 773              	.LVL58:
 784:Drivers/STM32H7xx_HAL_Driver/Src/stm32h7xx_hal_dac.c ****   }
 774              		.loc 1 784 9 view .LVU218
 775 0026 1144     		add	r1, r1, r2
ARM GAS  /tmp/cc0KkzsK.s 			page 30


 776 0028 1431     		adds	r1, r1, #20
 777 002a 0191     		str	r1, [sp, #4]
 778 002c F3E7     		b	.L57
 779              		.cfi_endproc
 780              	.LFE146:
 782              		.section	.text.HAL_DAC_ConvCpltCallbackCh1,"ax",%progbits
 783              		.align	1
 784              		.weak	HAL_DAC_ConvCpltCallbackCh1
 785              		.syntax unified
 786              		.thumb
 787              		.thumb_func
 788              		.fpu fpv5-d16
 790              	HAL_DAC_ConvCpltCallbackCh1:
 791              	.LVL59:
 792              	.LFB147:
 793:Drivers/STM32H7xx_HAL_Driver/Src/stm32h7xx_hal_dac.c **** 
 794:Drivers/STM32H7xx_HAL_Driver/Src/stm32h7xx_hal_dac.c **** /**
 795:Drivers/STM32H7xx_HAL_Driver/Src/stm32h7xx_hal_dac.c ****   * @brief  Conversion complete callback in non-blocking mode for Channel1 
 796:Drivers/STM32H7xx_HAL_Driver/Src/stm32h7xx_hal_dac.c ****   * @param  hdac: pointer to a DAC_HandleTypeDef structure that contains
 797:Drivers/STM32H7xx_HAL_Driver/Src/stm32h7xx_hal_dac.c ****   *         the configuration information for the specified DAC.
 798:Drivers/STM32H7xx_HAL_Driver/Src/stm32h7xx_hal_dac.c ****   * @retval None
 799:Drivers/STM32H7xx_HAL_Driver/Src/stm32h7xx_hal_dac.c ****   */
 800:Drivers/STM32H7xx_HAL_Driver/Src/stm32h7xx_hal_dac.c **** __weak void HAL_DAC_ConvCpltCallbackCh1(DAC_HandleTypeDef* hdac)
 801:Drivers/STM32H7xx_HAL_Driver/Src/stm32h7xx_hal_dac.c **** {
 793              		.loc 1 801 1 is_stmt 1 view -0
 794              		.cfi_startproc
 795              		@ args = 0, pretend = 0, frame = 0
 796              		@ frame_needed = 0, uses_anonymous_args = 0
 797              		@ link register save eliminated.
 802:Drivers/STM32H7xx_HAL_Driver/Src/stm32h7xx_hal_dac.c ****   /* Prevent unused argument(s) compilation warning */
 803:Drivers/STM32H7xx_HAL_Driver/Src/stm32h7xx_hal_dac.c ****   UNUSED(hdac);
 798              		.loc 1 803 3 view .LVU220
 804:Drivers/STM32H7xx_HAL_Driver/Src/stm32h7xx_hal_dac.c **** 
 805:Drivers/STM32H7xx_HAL_Driver/Src/stm32h7xx_hal_dac.c ****   /* NOTE : This function should not be modified, when the callback is needed,
 806:Drivers/STM32H7xx_HAL_Driver/Src/stm32h7xx_hal_dac.c ****             the HAL_DAC_ConvCpltCallbackCh1 could be implemented in the user file
 807:Drivers/STM32H7xx_HAL_Driver/Src/stm32h7xx_hal_dac.c ****    */
 808:Drivers/STM32H7xx_HAL_Driver/Src/stm32h7xx_hal_dac.c **** }
 799              		.loc 1 808 1 is_stmt 0 view .LVU221
 800 0000 7047     		bx	lr
 801              		.cfi_endproc
 802              	.LFE147:
 804              		.section	.text.DAC_DMAConvCpltCh1,"ax",%progbits
 805              		.align	1
 806              		.syntax unified
 807              		.thumb
 808              		.thumb_func
 809              		.fpu fpv5-d16
 811              	DAC_DMAConvCpltCh1:
 812              	.LVL60:
 813              	.LFB155:
 809:Drivers/STM32H7xx_HAL_Driver/Src/stm32h7xx_hal_dac.c **** 
 810:Drivers/STM32H7xx_HAL_Driver/Src/stm32h7xx_hal_dac.c **** /**
 811:Drivers/STM32H7xx_HAL_Driver/Src/stm32h7xx_hal_dac.c ****   * @brief  Conversion half DMA transfer callback in non-blocking mode for Channel1 
 812:Drivers/STM32H7xx_HAL_Driver/Src/stm32h7xx_hal_dac.c ****   * @param  hdac: pointer to a DAC_HandleTypeDef structure that contains
 813:Drivers/STM32H7xx_HAL_Driver/Src/stm32h7xx_hal_dac.c ****   *         the configuration information for the specified DAC.
 814:Drivers/STM32H7xx_HAL_Driver/Src/stm32h7xx_hal_dac.c ****   * @retval None
 815:Drivers/STM32H7xx_HAL_Driver/Src/stm32h7xx_hal_dac.c ****   */
ARM GAS  /tmp/cc0KkzsK.s 			page 31


 816:Drivers/STM32H7xx_HAL_Driver/Src/stm32h7xx_hal_dac.c **** __weak void HAL_DAC_ConvHalfCpltCallbackCh1(DAC_HandleTypeDef* hdac)
 817:Drivers/STM32H7xx_HAL_Driver/Src/stm32h7xx_hal_dac.c **** {
 818:Drivers/STM32H7xx_HAL_Driver/Src/stm32h7xx_hal_dac.c ****   /* Prevent unused argument(s) compilation warning */
 819:Drivers/STM32H7xx_HAL_Driver/Src/stm32h7xx_hal_dac.c ****   UNUSED(hdac);
 820:Drivers/STM32H7xx_HAL_Driver/Src/stm32h7xx_hal_dac.c **** 
 821:Drivers/STM32H7xx_HAL_Driver/Src/stm32h7xx_hal_dac.c ****   /* NOTE : This function should not be modified, when the callback is needed,
 822:Drivers/STM32H7xx_HAL_Driver/Src/stm32h7xx_hal_dac.c ****             the HAL_DAC_ConvHalfCpltCallbackCh1 could be implemented in the user file
 823:Drivers/STM32H7xx_HAL_Driver/Src/stm32h7xx_hal_dac.c ****    */
 824:Drivers/STM32H7xx_HAL_Driver/Src/stm32h7xx_hal_dac.c **** }
 825:Drivers/STM32H7xx_HAL_Driver/Src/stm32h7xx_hal_dac.c **** 
 826:Drivers/STM32H7xx_HAL_Driver/Src/stm32h7xx_hal_dac.c **** /**
 827:Drivers/STM32H7xx_HAL_Driver/Src/stm32h7xx_hal_dac.c ****   * @brief  Error DAC callback for Channel1.
 828:Drivers/STM32H7xx_HAL_Driver/Src/stm32h7xx_hal_dac.c ****   * @param  hdac: pointer to a DAC_HandleTypeDef structure that contains
 829:Drivers/STM32H7xx_HAL_Driver/Src/stm32h7xx_hal_dac.c ****   *         the configuration information for the specified DAC.
 830:Drivers/STM32H7xx_HAL_Driver/Src/stm32h7xx_hal_dac.c ****   * @retval None
 831:Drivers/STM32H7xx_HAL_Driver/Src/stm32h7xx_hal_dac.c ****   */
 832:Drivers/STM32H7xx_HAL_Driver/Src/stm32h7xx_hal_dac.c **** __weak void HAL_DAC_ErrorCallbackCh1(DAC_HandleTypeDef *hdac)
 833:Drivers/STM32H7xx_HAL_Driver/Src/stm32h7xx_hal_dac.c **** {
 834:Drivers/STM32H7xx_HAL_Driver/Src/stm32h7xx_hal_dac.c ****   /* Prevent unused argument(s) compilation warning */
 835:Drivers/STM32H7xx_HAL_Driver/Src/stm32h7xx_hal_dac.c ****   UNUSED(hdac);
 836:Drivers/STM32H7xx_HAL_Driver/Src/stm32h7xx_hal_dac.c **** 
 837:Drivers/STM32H7xx_HAL_Driver/Src/stm32h7xx_hal_dac.c ****   /* NOTE : This function should not be modified, when the callback is needed,
 838:Drivers/STM32H7xx_HAL_Driver/Src/stm32h7xx_hal_dac.c ****             the HAL_DAC_ErrorCallbackCh1 could be implemented in the user file
 839:Drivers/STM32H7xx_HAL_Driver/Src/stm32h7xx_hal_dac.c ****    */
 840:Drivers/STM32H7xx_HAL_Driver/Src/stm32h7xx_hal_dac.c **** }
 841:Drivers/STM32H7xx_HAL_Driver/Src/stm32h7xx_hal_dac.c **** 
 842:Drivers/STM32H7xx_HAL_Driver/Src/stm32h7xx_hal_dac.c **** /**
 843:Drivers/STM32H7xx_HAL_Driver/Src/stm32h7xx_hal_dac.c ****   * @brief  DMA underrun DAC callback for channel1.
 844:Drivers/STM32H7xx_HAL_Driver/Src/stm32h7xx_hal_dac.c ****   * @param  hdac: pointer to a DAC_HandleTypeDef structure that contains
 845:Drivers/STM32H7xx_HAL_Driver/Src/stm32h7xx_hal_dac.c ****   *         the configuration information for the specified DAC.
 846:Drivers/STM32H7xx_HAL_Driver/Src/stm32h7xx_hal_dac.c ****   * @retval None
 847:Drivers/STM32H7xx_HAL_Driver/Src/stm32h7xx_hal_dac.c ****   */
 848:Drivers/STM32H7xx_HAL_Driver/Src/stm32h7xx_hal_dac.c **** __weak void HAL_DAC_DMAUnderrunCallbackCh1(DAC_HandleTypeDef *hdac)
 849:Drivers/STM32H7xx_HAL_Driver/Src/stm32h7xx_hal_dac.c **** {
 850:Drivers/STM32H7xx_HAL_Driver/Src/stm32h7xx_hal_dac.c ****   /* Prevent unused argument(s) compilation warning */
 851:Drivers/STM32H7xx_HAL_Driver/Src/stm32h7xx_hal_dac.c ****   UNUSED(hdac);
 852:Drivers/STM32H7xx_HAL_Driver/Src/stm32h7xx_hal_dac.c **** 
 853:Drivers/STM32H7xx_HAL_Driver/Src/stm32h7xx_hal_dac.c ****   /* NOTE : This function should not be modified, when the callback is needed,
 854:Drivers/STM32H7xx_HAL_Driver/Src/stm32h7xx_hal_dac.c ****             the HAL_DAC_DMAUnderrunCallbackCh1 could be implemented in the user file
 855:Drivers/STM32H7xx_HAL_Driver/Src/stm32h7xx_hal_dac.c ****    */
 856:Drivers/STM32H7xx_HAL_Driver/Src/stm32h7xx_hal_dac.c **** }
 857:Drivers/STM32H7xx_HAL_Driver/Src/stm32h7xx_hal_dac.c **** 
 858:Drivers/STM32H7xx_HAL_Driver/Src/stm32h7xx_hal_dac.c **** /**
 859:Drivers/STM32H7xx_HAL_Driver/Src/stm32h7xx_hal_dac.c ****   * @}
 860:Drivers/STM32H7xx_HAL_Driver/Src/stm32h7xx_hal_dac.c ****   */
 861:Drivers/STM32H7xx_HAL_Driver/Src/stm32h7xx_hal_dac.c ****   
 862:Drivers/STM32H7xx_HAL_Driver/Src/stm32h7xx_hal_dac.c **** /** @defgroup DAC_Exported_Functions_Group3 Peripheral Control functions
 863:Drivers/STM32H7xx_HAL_Driver/Src/stm32h7xx_hal_dac.c ****  *  @brief    Peripheral Control functions 
 864:Drivers/STM32H7xx_HAL_Driver/Src/stm32h7xx_hal_dac.c ****  *
 865:Drivers/STM32H7xx_HAL_Driver/Src/stm32h7xx_hal_dac.c **** @verbatim   
 866:Drivers/STM32H7xx_HAL_Driver/Src/stm32h7xx_hal_dac.c ****   ==============================================================================
 867:Drivers/STM32H7xx_HAL_Driver/Src/stm32h7xx_hal_dac.c ****              ##### Peripheral Control functions #####
 868:Drivers/STM32H7xx_HAL_Driver/Src/stm32h7xx_hal_dac.c ****   ==============================================================================  
 869:Drivers/STM32H7xx_HAL_Driver/Src/stm32h7xx_hal_dac.c ****     [..]  This section provides functions allowing to:
 870:Drivers/STM32H7xx_HAL_Driver/Src/stm32h7xx_hal_dac.c ****       (+) Configure channels. 
 871:Drivers/STM32H7xx_HAL_Driver/Src/stm32h7xx_hal_dac.c ****       (+) Get result of conversion.
 872:Drivers/STM32H7xx_HAL_Driver/Src/stm32h7xx_hal_dac.c ****       
ARM GAS  /tmp/cc0KkzsK.s 			page 32


 873:Drivers/STM32H7xx_HAL_Driver/Src/stm32h7xx_hal_dac.c **** @endverbatim
 874:Drivers/STM32H7xx_HAL_Driver/Src/stm32h7xx_hal_dac.c ****   * @{
 875:Drivers/STM32H7xx_HAL_Driver/Src/stm32h7xx_hal_dac.c ****   */
 876:Drivers/STM32H7xx_HAL_Driver/Src/stm32h7xx_hal_dac.c **** 
 877:Drivers/STM32H7xx_HAL_Driver/Src/stm32h7xx_hal_dac.c **** 
 878:Drivers/STM32H7xx_HAL_Driver/Src/stm32h7xx_hal_dac.c **** /**
 879:Drivers/STM32H7xx_HAL_Driver/Src/stm32h7xx_hal_dac.c ****   * @brief  Return the last data output value of the selected DAC channel.
 880:Drivers/STM32H7xx_HAL_Driver/Src/stm32h7xx_hal_dac.c ****   * @param  hdac: pointer to a DAC_HandleTypeDef structure that contains
 881:Drivers/STM32H7xx_HAL_Driver/Src/stm32h7xx_hal_dac.c ****   *         the configuration information for the specified DAC.
 882:Drivers/STM32H7xx_HAL_Driver/Src/stm32h7xx_hal_dac.c ****   * @param  Channel: The selected DAC channel. 
 883:Drivers/STM32H7xx_HAL_Driver/Src/stm32h7xx_hal_dac.c ****   *          This parameter can be one of the following values:
 884:Drivers/STM32H7xx_HAL_Driver/Src/stm32h7xx_hal_dac.c ****   *            @arg DAC_CHANNEL_1: DAC Channel1 selected
 885:Drivers/STM32H7xx_HAL_Driver/Src/stm32h7xx_hal_dac.c ****   *            @arg DAC_CHANNEL_2: DAC Channel2 selected
 886:Drivers/STM32H7xx_HAL_Driver/Src/stm32h7xx_hal_dac.c ****   * @retval The selected DAC channel data output value.
 887:Drivers/STM32H7xx_HAL_Driver/Src/stm32h7xx_hal_dac.c ****   */
 888:Drivers/STM32H7xx_HAL_Driver/Src/stm32h7xx_hal_dac.c **** uint32_t HAL_DAC_GetValue(DAC_HandleTypeDef* hdac, uint32_t Channel)
 889:Drivers/STM32H7xx_HAL_Driver/Src/stm32h7xx_hal_dac.c **** {
 890:Drivers/STM32H7xx_HAL_Driver/Src/stm32h7xx_hal_dac.c ****   /* Check the parameters */
 891:Drivers/STM32H7xx_HAL_Driver/Src/stm32h7xx_hal_dac.c ****   assert_param(IS_DAC_CHANNEL(Channel));
 892:Drivers/STM32H7xx_HAL_Driver/Src/stm32h7xx_hal_dac.c ****   
 893:Drivers/STM32H7xx_HAL_Driver/Src/stm32h7xx_hal_dac.c ****   /* Returns the DAC channel data output register value */
 894:Drivers/STM32H7xx_HAL_Driver/Src/stm32h7xx_hal_dac.c ****   if(Channel == DAC_CHANNEL_1)
 895:Drivers/STM32H7xx_HAL_Driver/Src/stm32h7xx_hal_dac.c ****   {
 896:Drivers/STM32H7xx_HAL_Driver/Src/stm32h7xx_hal_dac.c ****     return hdac->Instance->DOR1;
 897:Drivers/STM32H7xx_HAL_Driver/Src/stm32h7xx_hal_dac.c ****   }
 898:Drivers/STM32H7xx_HAL_Driver/Src/stm32h7xx_hal_dac.c ****   else
 899:Drivers/STM32H7xx_HAL_Driver/Src/stm32h7xx_hal_dac.c ****   {
 900:Drivers/STM32H7xx_HAL_Driver/Src/stm32h7xx_hal_dac.c ****     return hdac->Instance->DOR2;
 901:Drivers/STM32H7xx_HAL_Driver/Src/stm32h7xx_hal_dac.c ****   }
 902:Drivers/STM32H7xx_HAL_Driver/Src/stm32h7xx_hal_dac.c **** }
 903:Drivers/STM32H7xx_HAL_Driver/Src/stm32h7xx_hal_dac.c **** /**
 904:Drivers/STM32H7xx_HAL_Driver/Src/stm32h7xx_hal_dac.c ****   * @brief  Configure the selected DAC channel.
 905:Drivers/STM32H7xx_HAL_Driver/Src/stm32h7xx_hal_dac.c ****   * @param  hdac: pointer to a DAC_HandleTypeDef structure that contains
 906:Drivers/STM32H7xx_HAL_Driver/Src/stm32h7xx_hal_dac.c ****   *         the configuration information for the specified DAC.
 907:Drivers/STM32H7xx_HAL_Driver/Src/stm32h7xx_hal_dac.c ****   * @param  sConfig: DAC configuration structure.
 908:Drivers/STM32H7xx_HAL_Driver/Src/stm32h7xx_hal_dac.c ****   * @param  Channel: The selected DAC channel. 
 909:Drivers/STM32H7xx_HAL_Driver/Src/stm32h7xx_hal_dac.c ****   *          This parameter can be one of the following values:
 910:Drivers/STM32H7xx_HAL_Driver/Src/stm32h7xx_hal_dac.c ****   *            @arg DAC_CHANNEL_1: DAC Channel1 selected
 911:Drivers/STM32H7xx_HAL_Driver/Src/stm32h7xx_hal_dac.c ****   *            @arg DAC_CHANNEL_2: DAC Channel2 selected
 912:Drivers/STM32H7xx_HAL_Driver/Src/stm32h7xx_hal_dac.c ****   * @retval HAL status
 913:Drivers/STM32H7xx_HAL_Driver/Src/stm32h7xx_hal_dac.c ****   */
 914:Drivers/STM32H7xx_HAL_Driver/Src/stm32h7xx_hal_dac.c **** HAL_StatusTypeDef HAL_DAC_ConfigChannel(DAC_HandleTypeDef* hdac, DAC_ChannelConfTypeDef* sConfig, u
 915:Drivers/STM32H7xx_HAL_Driver/Src/stm32h7xx_hal_dac.c **** {
 916:Drivers/STM32H7xx_HAL_Driver/Src/stm32h7xx_hal_dac.c ****   uint32_t tmpreg1 = 0, tmpreg2 = 0;
 917:Drivers/STM32H7xx_HAL_Driver/Src/stm32h7xx_hal_dac.c ****   uint32_t tickstart = 0;
 918:Drivers/STM32H7xx_HAL_Driver/Src/stm32h7xx_hal_dac.c ****    
 919:Drivers/STM32H7xx_HAL_Driver/Src/stm32h7xx_hal_dac.c ****   /* Check the DAC parameters */
 920:Drivers/STM32H7xx_HAL_Driver/Src/stm32h7xx_hal_dac.c ****   assert_param(IS_DAC_TRIGGER(sConfig->DAC_Trigger));
 921:Drivers/STM32H7xx_HAL_Driver/Src/stm32h7xx_hal_dac.c ****   assert_param(IS_DAC_OUTPUT_BUFFER_STATE(sConfig->DAC_OutputBuffer));
 922:Drivers/STM32H7xx_HAL_Driver/Src/stm32h7xx_hal_dac.c ****   assert_param(IS_DAC_CHIP_CONNECTION(sConfig->DAC_ConnectOnChipPeripheral));
 923:Drivers/STM32H7xx_HAL_Driver/Src/stm32h7xx_hal_dac.c ****   assert_param(IS_DAC_TRIMMING(sConfig->DAC_UserTrimming));
 924:Drivers/STM32H7xx_HAL_Driver/Src/stm32h7xx_hal_dac.c ****   if ((sConfig->DAC_UserTrimming) == DAC_TRIMMING_USER)
 925:Drivers/STM32H7xx_HAL_Driver/Src/stm32h7xx_hal_dac.c ****   {
 926:Drivers/STM32H7xx_HAL_Driver/Src/stm32h7xx_hal_dac.c ****     assert_param(IS_DAC_TRIMMINGVALUE(sConfig->DAC_TrimmingValue));               
 927:Drivers/STM32H7xx_HAL_Driver/Src/stm32h7xx_hal_dac.c ****   }
 928:Drivers/STM32H7xx_HAL_Driver/Src/stm32h7xx_hal_dac.c ****   assert_param(IS_DAC_SAMPLEANDHOLD(sConfig->DAC_SampleAndHold));
 929:Drivers/STM32H7xx_HAL_Driver/Src/stm32h7xx_hal_dac.c ****   if ((sConfig->DAC_SampleAndHold) == DAC_SAMPLEANDHOLD_ENABLE)
ARM GAS  /tmp/cc0KkzsK.s 			page 33


 930:Drivers/STM32H7xx_HAL_Driver/Src/stm32h7xx_hal_dac.c ****   {
 931:Drivers/STM32H7xx_HAL_Driver/Src/stm32h7xx_hal_dac.c ****     assert_param(IS_DAC_SAMPLETIME(sConfig->DAC_SampleAndHoldConfig.DAC_SampleTime));
 932:Drivers/STM32H7xx_HAL_Driver/Src/stm32h7xx_hal_dac.c ****     assert_param(IS_DAC_HOLDTIME(sConfig->DAC_SampleAndHoldConfig.DAC_HoldTime));
 933:Drivers/STM32H7xx_HAL_Driver/Src/stm32h7xx_hal_dac.c ****     assert_param(IS_DAC_REFRESHTIME(sConfig->DAC_SampleAndHoldConfig.DAC_RefreshTime)); 
 934:Drivers/STM32H7xx_HAL_Driver/Src/stm32h7xx_hal_dac.c ****   }
 935:Drivers/STM32H7xx_HAL_Driver/Src/stm32h7xx_hal_dac.c ****   assert_param(IS_DAC_CHANNEL(Channel));
 936:Drivers/STM32H7xx_HAL_Driver/Src/stm32h7xx_hal_dac.c ****  
 937:Drivers/STM32H7xx_HAL_Driver/Src/stm32h7xx_hal_dac.c ****   /* Process locked */
 938:Drivers/STM32H7xx_HAL_Driver/Src/stm32h7xx_hal_dac.c ****   __HAL_LOCK(hdac);
 939:Drivers/STM32H7xx_HAL_Driver/Src/stm32h7xx_hal_dac.c ****   
 940:Drivers/STM32H7xx_HAL_Driver/Src/stm32h7xx_hal_dac.c ****   /* Change DAC state */
 941:Drivers/STM32H7xx_HAL_Driver/Src/stm32h7xx_hal_dac.c ****   hdac->State = HAL_DAC_STATE_BUSY;
 942:Drivers/STM32H7xx_HAL_Driver/Src/stm32h7xx_hal_dac.c ****   
 943:Drivers/STM32H7xx_HAL_Driver/Src/stm32h7xx_hal_dac.c ****   if(sConfig->DAC_SampleAndHold == DAC_SAMPLEANDHOLD_ENABLE)
 944:Drivers/STM32H7xx_HAL_Driver/Src/stm32h7xx_hal_dac.c ****   /* Sample on old configuration */ 
 945:Drivers/STM32H7xx_HAL_Driver/Src/stm32h7xx_hal_dac.c ****   {
 946:Drivers/STM32H7xx_HAL_Driver/Src/stm32h7xx_hal_dac.c ****     /* SampleTime */
 947:Drivers/STM32H7xx_HAL_Driver/Src/stm32h7xx_hal_dac.c ****     if (Channel == DAC_CHANNEL_1)
 948:Drivers/STM32H7xx_HAL_Driver/Src/stm32h7xx_hal_dac.c ****     {
 949:Drivers/STM32H7xx_HAL_Driver/Src/stm32h7xx_hal_dac.c ****       /* Get timeout */
 950:Drivers/STM32H7xx_HAL_Driver/Src/stm32h7xx_hal_dac.c ****       tickstart = HAL_GetTick();
 951:Drivers/STM32H7xx_HAL_Driver/Src/stm32h7xx_hal_dac.c ****       
 952:Drivers/STM32H7xx_HAL_Driver/Src/stm32h7xx_hal_dac.c ****       
 953:Drivers/STM32H7xx_HAL_Driver/Src/stm32h7xx_hal_dac.c ****       /* SHSR1 can be written when BWST1  equals RESET */
 954:Drivers/STM32H7xx_HAL_Driver/Src/stm32h7xx_hal_dac.c ****       while (((hdac->Instance->SR) & DAC_SR_BWST1)!= RESET)
 955:Drivers/STM32H7xx_HAL_Driver/Src/stm32h7xx_hal_dac.c ****       {
 956:Drivers/STM32H7xx_HAL_Driver/Src/stm32h7xx_hal_dac.c ****         /* Check for the Timeout */
 957:Drivers/STM32H7xx_HAL_Driver/Src/stm32h7xx_hal_dac.c ****         if((HAL_GetTick() - tickstart) > TIMEOUT_DAC_CALIBCONFIG)
 958:Drivers/STM32H7xx_HAL_Driver/Src/stm32h7xx_hal_dac.c ****         {
 959:Drivers/STM32H7xx_HAL_Driver/Src/stm32h7xx_hal_dac.c ****           /* Update error code */
 960:Drivers/STM32H7xx_HAL_Driver/Src/stm32h7xx_hal_dac.c ****           SET_BIT(hdac->ErrorCode, HAL_DAC_ERROR_TIMEOUT);
 961:Drivers/STM32H7xx_HAL_Driver/Src/stm32h7xx_hal_dac.c **** 
 962:Drivers/STM32H7xx_HAL_Driver/Src/stm32h7xx_hal_dac.c ****           /* Change the DMA state */
 963:Drivers/STM32H7xx_HAL_Driver/Src/stm32h7xx_hal_dac.c ****           hdac->State = HAL_DAC_STATE_TIMEOUT;
 964:Drivers/STM32H7xx_HAL_Driver/Src/stm32h7xx_hal_dac.c **** 
 965:Drivers/STM32H7xx_HAL_Driver/Src/stm32h7xx_hal_dac.c ****           return HAL_TIMEOUT;
 966:Drivers/STM32H7xx_HAL_Driver/Src/stm32h7xx_hal_dac.c ****         }
 967:Drivers/STM32H7xx_HAL_Driver/Src/stm32h7xx_hal_dac.c ****       }
 968:Drivers/STM32H7xx_HAL_Driver/Src/stm32h7xx_hal_dac.c ****       HAL_Delay(1);
 969:Drivers/STM32H7xx_HAL_Driver/Src/stm32h7xx_hal_dac.c ****       hdac->Instance->SHSR1 = sConfig->DAC_SampleAndHoldConfig.DAC_SampleTime;
 970:Drivers/STM32H7xx_HAL_Driver/Src/stm32h7xx_hal_dac.c ****     }
 971:Drivers/STM32H7xx_HAL_Driver/Src/stm32h7xx_hal_dac.c ****     else /* Channel 2 */
 972:Drivers/STM32H7xx_HAL_Driver/Src/stm32h7xx_hal_dac.c ****     {
 973:Drivers/STM32H7xx_HAL_Driver/Src/stm32h7xx_hal_dac.c ****       /* SHSR2 can be written when BWST2 equals RESET */
 974:Drivers/STM32H7xx_HAL_Driver/Src/stm32h7xx_hal_dac.c **** 
 975:Drivers/STM32H7xx_HAL_Driver/Src/stm32h7xx_hal_dac.c ****       while (((hdac->Instance->SR) & DAC_SR_BWST2)!= RESET)
 976:Drivers/STM32H7xx_HAL_Driver/Src/stm32h7xx_hal_dac.c ****       {
 977:Drivers/STM32H7xx_HAL_Driver/Src/stm32h7xx_hal_dac.c ****         /* Check for the Timeout */
 978:Drivers/STM32H7xx_HAL_Driver/Src/stm32h7xx_hal_dac.c ****         if((HAL_GetTick() - tickstart) > TIMEOUT_DAC_CALIBCONFIG)
 979:Drivers/STM32H7xx_HAL_Driver/Src/stm32h7xx_hal_dac.c ****         {
 980:Drivers/STM32H7xx_HAL_Driver/Src/stm32h7xx_hal_dac.c ****           /* Update error code */
 981:Drivers/STM32H7xx_HAL_Driver/Src/stm32h7xx_hal_dac.c ****           SET_BIT(hdac->ErrorCode, HAL_DAC_ERROR_TIMEOUT);
 982:Drivers/STM32H7xx_HAL_Driver/Src/stm32h7xx_hal_dac.c **** 
 983:Drivers/STM32H7xx_HAL_Driver/Src/stm32h7xx_hal_dac.c ****           /* Change the DMA state */
 984:Drivers/STM32H7xx_HAL_Driver/Src/stm32h7xx_hal_dac.c ****           hdac->State = HAL_DAC_STATE_TIMEOUT;
 985:Drivers/STM32H7xx_HAL_Driver/Src/stm32h7xx_hal_dac.c **** 
 986:Drivers/STM32H7xx_HAL_Driver/Src/stm32h7xx_hal_dac.c ****           return HAL_TIMEOUT;
ARM GAS  /tmp/cc0KkzsK.s 			page 34


 987:Drivers/STM32H7xx_HAL_Driver/Src/stm32h7xx_hal_dac.c ****         }
 988:Drivers/STM32H7xx_HAL_Driver/Src/stm32h7xx_hal_dac.c ****       }
 989:Drivers/STM32H7xx_HAL_Driver/Src/stm32h7xx_hal_dac.c ****       HAL_Delay(1);
 990:Drivers/STM32H7xx_HAL_Driver/Src/stm32h7xx_hal_dac.c ****       hdac->Instance->SHSR2 = sConfig->DAC_SampleAndHoldConfig.DAC_SampleTime;
 991:Drivers/STM32H7xx_HAL_Driver/Src/stm32h7xx_hal_dac.c ****     }
 992:Drivers/STM32H7xx_HAL_Driver/Src/stm32h7xx_hal_dac.c ****     /* HoldTime */
 993:Drivers/STM32H7xx_HAL_Driver/Src/stm32h7xx_hal_dac.c ****     hdac->Instance->SHHR = (sConfig->DAC_SampleAndHoldConfig.DAC_HoldTime)<<Channel;
 994:Drivers/STM32H7xx_HAL_Driver/Src/stm32h7xx_hal_dac.c ****     /* RefreshTime */
 995:Drivers/STM32H7xx_HAL_Driver/Src/stm32h7xx_hal_dac.c ****     hdac->Instance->SHRR = (sConfig->DAC_SampleAndHoldConfig.DAC_RefreshTime)<<Channel;
 996:Drivers/STM32H7xx_HAL_Driver/Src/stm32h7xx_hal_dac.c ****   }
 997:Drivers/STM32H7xx_HAL_Driver/Src/stm32h7xx_hal_dac.c ****     
 998:Drivers/STM32H7xx_HAL_Driver/Src/stm32h7xx_hal_dac.c ****   if(sConfig->DAC_UserTrimming == DAC_TRIMMING_USER)
 999:Drivers/STM32H7xx_HAL_Driver/Src/stm32h7xx_hal_dac.c ****   /* USER TRIMMING */
1000:Drivers/STM32H7xx_HAL_Driver/Src/stm32h7xx_hal_dac.c ****   {
1001:Drivers/STM32H7xx_HAL_Driver/Src/stm32h7xx_hal_dac.c ****   /* Get the DAC CCR value */
1002:Drivers/STM32H7xx_HAL_Driver/Src/stm32h7xx_hal_dac.c ****   tmpreg1 = hdac->Instance->CCR;
1003:Drivers/STM32H7xx_HAL_Driver/Src/stm32h7xx_hal_dac.c ****   /* Clear trimming value */
1004:Drivers/STM32H7xx_HAL_Driver/Src/stm32h7xx_hal_dac.c ****   tmpreg1 &= ~(((uint32_t)(DAC_CCR_OTRIM1)) << Channel);
1005:Drivers/STM32H7xx_HAL_Driver/Src/stm32h7xx_hal_dac.c ****   /* Configure for the selected trimming offset */
1006:Drivers/STM32H7xx_HAL_Driver/Src/stm32h7xx_hal_dac.c ****   tmpreg2 = sConfig->DAC_TrimmingValue;
1007:Drivers/STM32H7xx_HAL_Driver/Src/stm32h7xx_hal_dac.c ****   /* Calculate CCR register value depending on DAC_Channel */
1008:Drivers/STM32H7xx_HAL_Driver/Src/stm32h7xx_hal_dac.c ****   tmpreg1 |= tmpreg2 << Channel;
1009:Drivers/STM32H7xx_HAL_Driver/Src/stm32h7xx_hal_dac.c ****   /* Write to DAC CCR */
1010:Drivers/STM32H7xx_HAL_Driver/Src/stm32h7xx_hal_dac.c ****   hdac->Instance->CCR = tmpreg1;
1011:Drivers/STM32H7xx_HAL_Driver/Src/stm32h7xx_hal_dac.c ****   }
1012:Drivers/STM32H7xx_HAL_Driver/Src/stm32h7xx_hal_dac.c ****   /* else factory trimming is used (factory setting are available at reset)*/
1013:Drivers/STM32H7xx_HAL_Driver/Src/stm32h7xx_hal_dac.c ****   /* SW Nothing has nothing to do */
1014:Drivers/STM32H7xx_HAL_Driver/Src/stm32h7xx_hal_dac.c ****   
1015:Drivers/STM32H7xx_HAL_Driver/Src/stm32h7xx_hal_dac.c ****   /* Get the DAC MCR value */
1016:Drivers/STM32H7xx_HAL_Driver/Src/stm32h7xx_hal_dac.c ****   tmpreg1 = hdac->Instance->MCR;
1017:Drivers/STM32H7xx_HAL_Driver/Src/stm32h7xx_hal_dac.c ****   /* Clear DAC_MCR_MODE2_0, DAC_MCR_MODE2_1 and DAC_MCR_MODE2_2 bits */
1018:Drivers/STM32H7xx_HAL_Driver/Src/stm32h7xx_hal_dac.c ****   tmpreg1 &= ~(((uint32_t)(DAC_MCR_MODE1)) << Channel); 
1019:Drivers/STM32H7xx_HAL_Driver/Src/stm32h7xx_hal_dac.c ****   /* Configure for the selected DAC channel: mode, buffer output & on chip peripheral connect */
1020:Drivers/STM32H7xx_HAL_Driver/Src/stm32h7xx_hal_dac.c ****   tmpreg2 = (sConfig->DAC_SampleAndHold | sConfig->DAC_OutputBuffer | sConfig->DAC_ConnectOnChipPer
1021:Drivers/STM32H7xx_HAL_Driver/Src/stm32h7xx_hal_dac.c ****   /* Calculate MCR register value depending on DAC_Channel */
1022:Drivers/STM32H7xx_HAL_Driver/Src/stm32h7xx_hal_dac.c ****   tmpreg1 |= tmpreg2 << Channel;
1023:Drivers/STM32H7xx_HAL_Driver/Src/stm32h7xx_hal_dac.c ****   /* Write to DAC MCR */
1024:Drivers/STM32H7xx_HAL_Driver/Src/stm32h7xx_hal_dac.c ****   hdac->Instance->MCR = tmpreg1;
1025:Drivers/STM32H7xx_HAL_Driver/Src/stm32h7xx_hal_dac.c ****   
1026:Drivers/STM32H7xx_HAL_Driver/Src/stm32h7xx_hal_dac.c ****   /* DAC in normal operating mode hence clear DAC_CR_CENx bit */
1027:Drivers/STM32H7xx_HAL_Driver/Src/stm32h7xx_hal_dac.c ****   CLEAR_BIT (hdac->Instance->CR, DAC_CR_CEN1 << Channel);
1028:Drivers/STM32H7xx_HAL_Driver/Src/stm32h7xx_hal_dac.c ****   
1029:Drivers/STM32H7xx_HAL_Driver/Src/stm32h7xx_hal_dac.c ****   /* Get the DAC CR value */
1030:Drivers/STM32H7xx_HAL_Driver/Src/stm32h7xx_hal_dac.c ****   tmpreg1 = hdac->Instance->CR;
1031:Drivers/STM32H7xx_HAL_Driver/Src/stm32h7xx_hal_dac.c ****   /* Clear TENx, TSELx, WAVEx and MAMPx bits */
1032:Drivers/STM32H7xx_HAL_Driver/Src/stm32h7xx_hal_dac.c ****   tmpreg1 &= ~(((uint32_t)(DAC_CR_MAMP1 | DAC_CR_WAVE1 | DAC_CR_TSEL1 | DAC_CR_TEN1)) << Channel); 
1033:Drivers/STM32H7xx_HAL_Driver/Src/stm32h7xx_hal_dac.c ****   /* Configure for the selected DAC channel: trigger */
1034:Drivers/STM32H7xx_HAL_Driver/Src/stm32h7xx_hal_dac.c ****   /* Set TSELx and TENx bits according to DAC_Trigger value */
1035:Drivers/STM32H7xx_HAL_Driver/Src/stm32h7xx_hal_dac.c ****   tmpreg2 = (sConfig->DAC_Trigger);
1036:Drivers/STM32H7xx_HAL_Driver/Src/stm32h7xx_hal_dac.c ****   /* Calculate CR register value depending on DAC_Channel */
1037:Drivers/STM32H7xx_HAL_Driver/Src/stm32h7xx_hal_dac.c ****   tmpreg1 |= tmpreg2 << Channel;
1038:Drivers/STM32H7xx_HAL_Driver/Src/stm32h7xx_hal_dac.c **** 
1039:Drivers/STM32H7xx_HAL_Driver/Src/stm32h7xx_hal_dac.c ****   /* Write to DAC CR */
1040:Drivers/STM32H7xx_HAL_Driver/Src/stm32h7xx_hal_dac.c ****   hdac->Instance->CR = tmpreg1;
1041:Drivers/STM32H7xx_HAL_Driver/Src/stm32h7xx_hal_dac.c ****       
1042:Drivers/STM32H7xx_HAL_Driver/Src/stm32h7xx_hal_dac.c ****   /* Disable wave generation */
1043:Drivers/STM32H7xx_HAL_Driver/Src/stm32h7xx_hal_dac.c ****   hdac->Instance->CR &= ~(DAC_CR_WAVE1 << Channel);
ARM GAS  /tmp/cc0KkzsK.s 			page 35


1044:Drivers/STM32H7xx_HAL_Driver/Src/stm32h7xx_hal_dac.c ****   
1045:Drivers/STM32H7xx_HAL_Driver/Src/stm32h7xx_hal_dac.c ****   /* Change DAC state */
1046:Drivers/STM32H7xx_HAL_Driver/Src/stm32h7xx_hal_dac.c ****   hdac->State = HAL_DAC_STATE_READY;
1047:Drivers/STM32H7xx_HAL_Driver/Src/stm32h7xx_hal_dac.c ****   
1048:Drivers/STM32H7xx_HAL_Driver/Src/stm32h7xx_hal_dac.c ****   /* Process unlocked */
1049:Drivers/STM32H7xx_HAL_Driver/Src/stm32h7xx_hal_dac.c ****   __HAL_UNLOCK(hdac);
1050:Drivers/STM32H7xx_HAL_Driver/Src/stm32h7xx_hal_dac.c ****   
1051:Drivers/STM32H7xx_HAL_Driver/Src/stm32h7xx_hal_dac.c ****   /* Return function status */
1052:Drivers/STM32H7xx_HAL_Driver/Src/stm32h7xx_hal_dac.c ****   return HAL_OK;
1053:Drivers/STM32H7xx_HAL_Driver/Src/stm32h7xx_hal_dac.c **** }
1054:Drivers/STM32H7xx_HAL_Driver/Src/stm32h7xx_hal_dac.c **** 
1055:Drivers/STM32H7xx_HAL_Driver/Src/stm32h7xx_hal_dac.c **** 
1056:Drivers/STM32H7xx_HAL_Driver/Src/stm32h7xx_hal_dac.c **** 
1057:Drivers/STM32H7xx_HAL_Driver/Src/stm32h7xx_hal_dac.c **** /**
1058:Drivers/STM32H7xx_HAL_Driver/Src/stm32h7xx_hal_dac.c ****   * @}
1059:Drivers/STM32H7xx_HAL_Driver/Src/stm32h7xx_hal_dac.c ****   */
1060:Drivers/STM32H7xx_HAL_Driver/Src/stm32h7xx_hal_dac.c **** 
1061:Drivers/STM32H7xx_HAL_Driver/Src/stm32h7xx_hal_dac.c **** /** @defgroup DAC_Exported_Functions_Group4 Peripheral State and Errors functions
1062:Drivers/STM32H7xx_HAL_Driver/Src/stm32h7xx_hal_dac.c ****  *  @brief   Peripheral State and Errors functions 
1063:Drivers/STM32H7xx_HAL_Driver/Src/stm32h7xx_hal_dac.c ****  *
1064:Drivers/STM32H7xx_HAL_Driver/Src/stm32h7xx_hal_dac.c **** @verbatim   
1065:Drivers/STM32H7xx_HAL_Driver/Src/stm32h7xx_hal_dac.c ****   ==============================================================================
1066:Drivers/STM32H7xx_HAL_Driver/Src/stm32h7xx_hal_dac.c ****             ##### Peripheral State and Errors functions #####
1067:Drivers/STM32H7xx_HAL_Driver/Src/stm32h7xx_hal_dac.c ****   ==============================================================================  
1068:Drivers/STM32H7xx_HAL_Driver/Src/stm32h7xx_hal_dac.c ****     [..]
1069:Drivers/STM32H7xx_HAL_Driver/Src/stm32h7xx_hal_dac.c ****     This subsection provides functions allowing to
1070:Drivers/STM32H7xx_HAL_Driver/Src/stm32h7xx_hal_dac.c ****       (+) Check the DAC state.
1071:Drivers/STM32H7xx_HAL_Driver/Src/stm32h7xx_hal_dac.c ****       (+) Check the DAC Errors.
1072:Drivers/STM32H7xx_HAL_Driver/Src/stm32h7xx_hal_dac.c ****         
1073:Drivers/STM32H7xx_HAL_Driver/Src/stm32h7xx_hal_dac.c **** @endverbatim
1074:Drivers/STM32H7xx_HAL_Driver/Src/stm32h7xx_hal_dac.c ****   * @{
1075:Drivers/STM32H7xx_HAL_Driver/Src/stm32h7xx_hal_dac.c ****   */
1076:Drivers/STM32H7xx_HAL_Driver/Src/stm32h7xx_hal_dac.c **** 
1077:Drivers/STM32H7xx_HAL_Driver/Src/stm32h7xx_hal_dac.c **** /**
1078:Drivers/STM32H7xx_HAL_Driver/Src/stm32h7xx_hal_dac.c ****   * @brief  return the DAC handle state
1079:Drivers/STM32H7xx_HAL_Driver/Src/stm32h7xx_hal_dac.c ****   * @param  hdac: pointer to a DAC_HandleTypeDef structure that contains
1080:Drivers/STM32H7xx_HAL_Driver/Src/stm32h7xx_hal_dac.c ****   *         the configuration information for the specified DAC.
1081:Drivers/STM32H7xx_HAL_Driver/Src/stm32h7xx_hal_dac.c ****   * @retval HAL state
1082:Drivers/STM32H7xx_HAL_Driver/Src/stm32h7xx_hal_dac.c ****   */
1083:Drivers/STM32H7xx_HAL_Driver/Src/stm32h7xx_hal_dac.c **** HAL_DAC_StateTypeDef HAL_DAC_GetState(DAC_HandleTypeDef* hdac)
1084:Drivers/STM32H7xx_HAL_Driver/Src/stm32h7xx_hal_dac.c **** {
1085:Drivers/STM32H7xx_HAL_Driver/Src/stm32h7xx_hal_dac.c ****   /* Return DAC handle state */
1086:Drivers/STM32H7xx_HAL_Driver/Src/stm32h7xx_hal_dac.c ****   return hdac->State;
1087:Drivers/STM32H7xx_HAL_Driver/Src/stm32h7xx_hal_dac.c **** }
1088:Drivers/STM32H7xx_HAL_Driver/Src/stm32h7xx_hal_dac.c **** 
1089:Drivers/STM32H7xx_HAL_Driver/Src/stm32h7xx_hal_dac.c **** /**
1090:Drivers/STM32H7xx_HAL_Driver/Src/stm32h7xx_hal_dac.c ****   * @brief  Return the DAC error code
1091:Drivers/STM32H7xx_HAL_Driver/Src/stm32h7xx_hal_dac.c ****   * @param  hdac: pointer to a DAC_HandleTypeDef structure that contains
1092:Drivers/STM32H7xx_HAL_Driver/Src/stm32h7xx_hal_dac.c ****   *         the configuration information for the specified DAC.
1093:Drivers/STM32H7xx_HAL_Driver/Src/stm32h7xx_hal_dac.c ****   * @retval DAC Error Code
1094:Drivers/STM32H7xx_HAL_Driver/Src/stm32h7xx_hal_dac.c ****   */
1095:Drivers/STM32H7xx_HAL_Driver/Src/stm32h7xx_hal_dac.c **** uint32_t HAL_DAC_GetError(DAC_HandleTypeDef *hdac)
1096:Drivers/STM32H7xx_HAL_Driver/Src/stm32h7xx_hal_dac.c **** {
1097:Drivers/STM32H7xx_HAL_Driver/Src/stm32h7xx_hal_dac.c ****   return hdac->ErrorCode;
1098:Drivers/STM32H7xx_HAL_Driver/Src/stm32h7xx_hal_dac.c **** }
1099:Drivers/STM32H7xx_HAL_Driver/Src/stm32h7xx_hal_dac.c **** 
1100:Drivers/STM32H7xx_HAL_Driver/Src/stm32h7xx_hal_dac.c **** /**
ARM GAS  /tmp/cc0KkzsK.s 			page 36


1101:Drivers/STM32H7xx_HAL_Driver/Src/stm32h7xx_hal_dac.c ****   * @}
1102:Drivers/STM32H7xx_HAL_Driver/Src/stm32h7xx_hal_dac.c ****   */
1103:Drivers/STM32H7xx_HAL_Driver/Src/stm32h7xx_hal_dac.c **** 
1104:Drivers/STM32H7xx_HAL_Driver/Src/stm32h7xx_hal_dac.c **** /**
1105:Drivers/STM32H7xx_HAL_Driver/Src/stm32h7xx_hal_dac.c ****   * @}
1106:Drivers/STM32H7xx_HAL_Driver/Src/stm32h7xx_hal_dac.c ****   */
1107:Drivers/STM32H7xx_HAL_Driver/Src/stm32h7xx_hal_dac.c **** 
1108:Drivers/STM32H7xx_HAL_Driver/Src/stm32h7xx_hal_dac.c **** 
1109:Drivers/STM32H7xx_HAL_Driver/Src/stm32h7xx_hal_dac.c **** /** @addtogroup DAC_Private_Functions
1110:Drivers/STM32H7xx_HAL_Driver/Src/stm32h7xx_hal_dac.c ****   * @{
1111:Drivers/STM32H7xx_HAL_Driver/Src/stm32h7xx_hal_dac.c ****   */
1112:Drivers/STM32H7xx_HAL_Driver/Src/stm32h7xx_hal_dac.c **** 
1113:Drivers/STM32H7xx_HAL_Driver/Src/stm32h7xx_hal_dac.c **** /**
1114:Drivers/STM32H7xx_HAL_Driver/Src/stm32h7xx_hal_dac.c ****   * @brief  DMA conversion complete callback. 
1115:Drivers/STM32H7xx_HAL_Driver/Src/stm32h7xx_hal_dac.c ****   * @param  hdma: pointer to a DMA_HandleTypeDef structure that contains
1116:Drivers/STM32H7xx_HAL_Driver/Src/stm32h7xx_hal_dac.c ****   *                the configuration information for the specified DMA module.
1117:Drivers/STM32H7xx_HAL_Driver/Src/stm32h7xx_hal_dac.c ****   * @retval None
1118:Drivers/STM32H7xx_HAL_Driver/Src/stm32h7xx_hal_dac.c ****   */
1119:Drivers/STM32H7xx_HAL_Driver/Src/stm32h7xx_hal_dac.c **** static void DAC_DMAConvCpltCh1(DMA_HandleTypeDef *hdma)   
1120:Drivers/STM32H7xx_HAL_Driver/Src/stm32h7xx_hal_dac.c **** {
 814              		.loc 1 1120 1 is_stmt 1 view -0
 815              		.cfi_startproc
 816              		@ args = 0, pretend = 0, frame = 0
 817              		@ frame_needed = 0, uses_anonymous_args = 0
 818              		.loc 1 1120 1 is_stmt 0 view .LVU223
 819 0000 10B5     		push	{r4, lr}
 820              	.LCFI17:
 821              		.cfi_def_cfa_offset 8
 822              		.cfi_offset 4, -8
 823              		.cfi_offset 14, -4
1121:Drivers/STM32H7xx_HAL_Driver/Src/stm32h7xx_hal_dac.c ****   DAC_HandleTypeDef* hdac = ( DAC_HandleTypeDef* )((DMA_HandleTypeDef* )hdma)->Parent;
 824              		.loc 1 1121 3 is_stmt 1 view .LVU224
 825              		.loc 1 1121 22 is_stmt 0 view .LVU225
 826 0002 846B     		ldr	r4, [r0, #56]
 827              	.LVL61:
1122:Drivers/STM32H7xx_HAL_Driver/Src/stm32h7xx_hal_dac.c ****   
1123:Drivers/STM32H7xx_HAL_Driver/Src/stm32h7xx_hal_dac.c ****   HAL_DAC_ConvCpltCallbackCh1(hdac); 
 828              		.loc 1 1123 3 is_stmt 1 view .LVU226
 829 0004 2046     		mov	r0, r4
 830              	.LVL62:
 831              		.loc 1 1123 3 is_stmt 0 view .LVU227
 832 0006 FFF7FEFF 		bl	HAL_DAC_ConvCpltCallbackCh1
 833              	.LVL63:
1124:Drivers/STM32H7xx_HAL_Driver/Src/stm32h7xx_hal_dac.c ****   
1125:Drivers/STM32H7xx_HAL_Driver/Src/stm32h7xx_hal_dac.c ****   hdac->State= HAL_DAC_STATE_READY;
 834              		.loc 1 1125 3 is_stmt 1 view .LVU228
 835              		.loc 1 1125 14 is_stmt 0 view .LVU229
 836 000a 0123     		movs	r3, #1
 837 000c 2371     		strb	r3, [r4, #4]
1126:Drivers/STM32H7xx_HAL_Driver/Src/stm32h7xx_hal_dac.c **** }
 838              		.loc 1 1126 1 view .LVU230
 839 000e 10BD     		pop	{r4, pc}
 840              		.loc 1 1126 1 view .LVU231
 841              		.cfi_endproc
 842              	.LFE155:
 844              		.section	.text.HAL_DAC_ConvHalfCpltCallbackCh1,"ax",%progbits
 845              		.align	1
ARM GAS  /tmp/cc0KkzsK.s 			page 37


 846              		.weak	HAL_DAC_ConvHalfCpltCallbackCh1
 847              		.syntax unified
 848              		.thumb
 849              		.thumb_func
 850              		.fpu fpv5-d16
 852              	HAL_DAC_ConvHalfCpltCallbackCh1:
 853              	.LVL64:
 854              	.LFB148:
 817:Drivers/STM32H7xx_HAL_Driver/Src/stm32h7xx_hal_dac.c ****   /* Prevent unused argument(s) compilation warning */
 855              		.loc 1 817 1 is_stmt 1 view -0
 856              		.cfi_startproc
 857              		@ args = 0, pretend = 0, frame = 0
 858              		@ frame_needed = 0, uses_anonymous_args = 0
 859              		@ link register save eliminated.
 819:Drivers/STM32H7xx_HAL_Driver/Src/stm32h7xx_hal_dac.c **** 
 860              		.loc 1 819 3 view .LVU233
 824:Drivers/STM32H7xx_HAL_Driver/Src/stm32h7xx_hal_dac.c **** 
 861              		.loc 1 824 1 is_stmt 0 view .LVU234
 862 0000 7047     		bx	lr
 863              		.cfi_endproc
 864              	.LFE148:
 866              		.section	.text.DAC_DMAHalfConvCpltCh1,"ax",%progbits
 867              		.align	1
 868              		.syntax unified
 869              		.thumb
 870              		.thumb_func
 871              		.fpu fpv5-d16
 873              	DAC_DMAHalfConvCpltCh1:
 874              	.LVL65:
 875              	.LFB156:
1127:Drivers/STM32H7xx_HAL_Driver/Src/stm32h7xx_hal_dac.c **** 
1128:Drivers/STM32H7xx_HAL_Driver/Src/stm32h7xx_hal_dac.c **** /**
1129:Drivers/STM32H7xx_HAL_Driver/Src/stm32h7xx_hal_dac.c ****   * @brief  DMA half transfer complete callback. 
1130:Drivers/STM32H7xx_HAL_Driver/Src/stm32h7xx_hal_dac.c ****   * @param  hdma: pointer to a DMA_HandleTypeDef structure that contains
1131:Drivers/STM32H7xx_HAL_Driver/Src/stm32h7xx_hal_dac.c ****   *                the configuration information for the specified DMA module.
1132:Drivers/STM32H7xx_HAL_Driver/Src/stm32h7xx_hal_dac.c ****   * @retval None
1133:Drivers/STM32H7xx_HAL_Driver/Src/stm32h7xx_hal_dac.c ****   */
1134:Drivers/STM32H7xx_HAL_Driver/Src/stm32h7xx_hal_dac.c **** static void DAC_DMAHalfConvCpltCh1(DMA_HandleTypeDef *hdma)   
1135:Drivers/STM32H7xx_HAL_Driver/Src/stm32h7xx_hal_dac.c **** {
 876              		.loc 1 1135 1 is_stmt 1 view -0
 877              		.cfi_startproc
 878              		@ args = 0, pretend = 0, frame = 0
 879              		@ frame_needed = 0, uses_anonymous_args = 0
 880              		.loc 1 1135 1 is_stmt 0 view .LVU236
 881 0000 08B5     		push	{r3, lr}
 882              	.LCFI18:
 883              		.cfi_def_cfa_offset 8
 884              		.cfi_offset 3, -8
 885              		.cfi_offset 14, -4
1136:Drivers/STM32H7xx_HAL_Driver/Src/stm32h7xx_hal_dac.c ****     DAC_HandleTypeDef* hdac = ( DAC_HandleTypeDef* )((DMA_HandleTypeDef* )hdma)->Parent;
 886              		.loc 1 1136 5 is_stmt 1 view .LVU237
 887              	.LVL66:
1137:Drivers/STM32H7xx_HAL_Driver/Src/stm32h7xx_hal_dac.c ****     /* Conversion complete callback */
1138:Drivers/STM32H7xx_HAL_Driver/Src/stm32h7xx_hal_dac.c ****     HAL_DAC_ConvHalfCpltCallbackCh1(hdac); 
 888              		.loc 1 1138 5 view .LVU238
 889 0002 806B     		ldr	r0, [r0, #56]
 890              	.LVL67:
ARM GAS  /tmp/cc0KkzsK.s 			page 38


 891              		.loc 1 1138 5 is_stmt 0 view .LVU239
 892 0004 FFF7FEFF 		bl	HAL_DAC_ConvHalfCpltCallbackCh1
 893              	.LVL68:
1139:Drivers/STM32H7xx_HAL_Driver/Src/stm32h7xx_hal_dac.c **** }
 894              		.loc 1 1139 1 view .LVU240
 895 0008 08BD     		pop	{r3, pc}
 896              		.cfi_endproc
 897              	.LFE156:
 899              		.section	.text.HAL_DAC_ErrorCallbackCh1,"ax",%progbits
 900              		.align	1
 901              		.weak	HAL_DAC_ErrorCallbackCh1
 902              		.syntax unified
 903              		.thumb
 904              		.thumb_func
 905              		.fpu fpv5-d16
 907              	HAL_DAC_ErrorCallbackCh1:
 908              	.LVL69:
 909              	.LFB149:
 833:Drivers/STM32H7xx_HAL_Driver/Src/stm32h7xx_hal_dac.c ****   /* Prevent unused argument(s) compilation warning */
 910              		.loc 1 833 1 is_stmt 1 view -0
 911              		.cfi_startproc
 912              		@ args = 0, pretend = 0, frame = 0
 913              		@ frame_needed = 0, uses_anonymous_args = 0
 914              		@ link register save eliminated.
 835:Drivers/STM32H7xx_HAL_Driver/Src/stm32h7xx_hal_dac.c **** 
 915              		.loc 1 835 3 view .LVU242
 840:Drivers/STM32H7xx_HAL_Driver/Src/stm32h7xx_hal_dac.c **** 
 916              		.loc 1 840 1 is_stmt 0 view .LVU243
 917 0000 7047     		bx	lr
 918              		.cfi_endproc
 919              	.LFE149:
 921              		.section	.text.DAC_DMAErrorCh1,"ax",%progbits
 922              		.align	1
 923              		.syntax unified
 924              		.thumb
 925              		.thumb_func
 926              		.fpu fpv5-d16
 928              	DAC_DMAErrorCh1:
 929              	.LVL70:
 930              	.LFB157:
1140:Drivers/STM32H7xx_HAL_Driver/Src/stm32h7xx_hal_dac.c **** 
1141:Drivers/STM32H7xx_HAL_Driver/Src/stm32h7xx_hal_dac.c **** /**
1142:Drivers/STM32H7xx_HAL_Driver/Src/stm32h7xx_hal_dac.c ****   * @brief  DMA error callback 
1143:Drivers/STM32H7xx_HAL_Driver/Src/stm32h7xx_hal_dac.c ****   * @param  hdma: pointer to a DMA_HandleTypeDef structure that contains
1144:Drivers/STM32H7xx_HAL_Driver/Src/stm32h7xx_hal_dac.c ****   *                the configuration information for the specified DMA module.
1145:Drivers/STM32H7xx_HAL_Driver/Src/stm32h7xx_hal_dac.c ****   * @retval None
1146:Drivers/STM32H7xx_HAL_Driver/Src/stm32h7xx_hal_dac.c ****   */
1147:Drivers/STM32H7xx_HAL_Driver/Src/stm32h7xx_hal_dac.c **** static void DAC_DMAErrorCh1(DMA_HandleTypeDef *hdma)   
1148:Drivers/STM32H7xx_HAL_Driver/Src/stm32h7xx_hal_dac.c **** {
 931              		.loc 1 1148 1 is_stmt 1 view -0
 932              		.cfi_startproc
 933              		@ args = 0, pretend = 0, frame = 0
 934              		@ frame_needed = 0, uses_anonymous_args = 0
 935              		.loc 1 1148 1 is_stmt 0 view .LVU245
 936 0000 10B5     		push	{r4, lr}
 937              	.LCFI19:
 938              		.cfi_def_cfa_offset 8
ARM GAS  /tmp/cc0KkzsK.s 			page 39


 939              		.cfi_offset 4, -8
 940              		.cfi_offset 14, -4
1149:Drivers/STM32H7xx_HAL_Driver/Src/stm32h7xx_hal_dac.c ****   DAC_HandleTypeDef* hdac = ( DAC_HandleTypeDef* )((DMA_HandleTypeDef* )hdma)->Parent;
 941              		.loc 1 1149 3 is_stmt 1 view .LVU246
 942              		.loc 1 1149 22 is_stmt 0 view .LVU247
 943 0002 846B     		ldr	r4, [r0, #56]
 944              	.LVL71:
1150:Drivers/STM32H7xx_HAL_Driver/Src/stm32h7xx_hal_dac.c ****     
1151:Drivers/STM32H7xx_HAL_Driver/Src/stm32h7xx_hal_dac.c ****   /* Set DAC error code to DMA error */
1152:Drivers/STM32H7xx_HAL_Driver/Src/stm32h7xx_hal_dac.c ****   hdac->ErrorCode |= HAL_DAC_ERROR_DMA;
 945              		.loc 1 1152 3 is_stmt 1 view .LVU248
 946              		.loc 1 1152 19 is_stmt 0 view .LVU249
 947 0004 2369     		ldr	r3, [r4, #16]
 948 0006 43F00403 		orr	r3, r3, #4
 949 000a 2361     		str	r3, [r4, #16]
1153:Drivers/STM32H7xx_HAL_Driver/Src/stm32h7xx_hal_dac.c ****     
1154:Drivers/STM32H7xx_HAL_Driver/Src/stm32h7xx_hal_dac.c ****   HAL_DAC_ErrorCallbackCh1(hdac); 
 950              		.loc 1 1154 3 is_stmt 1 view .LVU250
 951 000c 2046     		mov	r0, r4
 952              	.LVL72:
 953              		.loc 1 1154 3 is_stmt 0 view .LVU251
 954 000e FFF7FEFF 		bl	HAL_DAC_ErrorCallbackCh1
 955              	.LVL73:
1155:Drivers/STM32H7xx_HAL_Driver/Src/stm32h7xx_hal_dac.c ****     
1156:Drivers/STM32H7xx_HAL_Driver/Src/stm32h7xx_hal_dac.c ****   hdac->State= HAL_DAC_STATE_READY;
 956              		.loc 1 1156 3 is_stmt 1 view .LVU252
 957              		.loc 1 1156 14 is_stmt 0 view .LVU253
 958 0012 0123     		movs	r3, #1
 959 0014 2371     		strb	r3, [r4, #4]
1157:Drivers/STM32H7xx_HAL_Driver/Src/stm32h7xx_hal_dac.c **** }
 960              		.loc 1 1157 1 view .LVU254
 961 0016 10BD     		pop	{r4, pc}
 962              		.loc 1 1157 1 view .LVU255
 963              		.cfi_endproc
 964              	.LFE157:
 966              		.section	.text.HAL_DAC_DMAUnderrunCallbackCh1,"ax",%progbits
 967              		.align	1
 968              		.weak	HAL_DAC_DMAUnderrunCallbackCh1
 969              		.syntax unified
 970              		.thumb
 971              		.thumb_func
 972              		.fpu fpv5-d16
 974              	HAL_DAC_DMAUnderrunCallbackCh1:
 975              	.LVL74:
 976              	.LFB150:
 849:Drivers/STM32H7xx_HAL_Driver/Src/stm32h7xx_hal_dac.c ****   /* Prevent unused argument(s) compilation warning */
 977              		.loc 1 849 1 is_stmt 1 view -0
 978              		.cfi_startproc
 979              		@ args = 0, pretend = 0, frame = 0
 980              		@ frame_needed = 0, uses_anonymous_args = 0
 981              		@ link register save eliminated.
 851:Drivers/STM32H7xx_HAL_Driver/Src/stm32h7xx_hal_dac.c **** 
 982              		.loc 1 851 3 view .LVU257
 856:Drivers/STM32H7xx_HAL_Driver/Src/stm32h7xx_hal_dac.c **** 
 983              		.loc 1 856 1 is_stmt 0 view .LVU258
 984 0000 7047     		bx	lr
 985              		.cfi_endproc
ARM GAS  /tmp/cc0KkzsK.s 			page 40


 986              	.LFE150:
 988              		.section	.text.HAL_DAC_IRQHandler,"ax",%progbits
 989              		.align	1
 990              		.global	HAL_DAC_IRQHandler
 991              		.syntax unified
 992              		.thumb
 993              		.thumb_func
 994              		.fpu fpv5-d16
 996              	HAL_DAC_IRQHandler:
 997              	.LVL75:
 998              	.LFB145:
 707:Drivers/STM32H7xx_HAL_Driver/Src/stm32h7xx_hal_dac.c ****   if(__HAL_DAC_GET_IT_SOURCE(hdac, DAC_IT_DMAUDR1))
 999              		.loc 1 707 1 is_stmt 1 view -0
 1000              		.cfi_startproc
 1001              		@ args = 0, pretend = 0, frame = 0
 1002              		@ frame_needed = 0, uses_anonymous_args = 0
 707:Drivers/STM32H7xx_HAL_Driver/Src/stm32h7xx_hal_dac.c ****   if(__HAL_DAC_GET_IT_SOURCE(hdac, DAC_IT_DMAUDR1))
 1003              		.loc 1 707 1 is_stmt 0 view .LVU260
 1004 0000 10B5     		push	{r4, lr}
 1005              	.LCFI20:
 1006              		.cfi_def_cfa_offset 8
 1007              		.cfi_offset 4, -8
 1008              		.cfi_offset 14, -4
 1009 0002 0446     		mov	r4, r0
 708:Drivers/STM32H7xx_HAL_Driver/Src/stm32h7xx_hal_dac.c ****   { 
 1010              		.loc 1 708 3 is_stmt 1 view .LVU261
 708:Drivers/STM32H7xx_HAL_Driver/Src/stm32h7xx_hal_dac.c ****   { 
 1011              		.loc 1 708 6 is_stmt 0 view .LVU262
 1012 0004 0368     		ldr	r3, [r0]
 1013 0006 1A68     		ldr	r2, [r3]
 708:Drivers/STM32H7xx_HAL_Driver/Src/stm32h7xx_hal_dac.c ****   { 
 1014              		.loc 1 708 5 view .LVU263
 1015 0008 12F4005F 		tst	r2, #8192
 1016 000c 03D0     		beq	.L70
 711:Drivers/STM32H7xx_HAL_Driver/Src/stm32h7xx_hal_dac.c ****     {
 1017              		.loc 1 711 5 is_stmt 1 view .LVU264
 711:Drivers/STM32H7xx_HAL_Driver/Src/stm32h7xx_hal_dac.c ****     {
 1018              		.loc 1 711 8 is_stmt 0 view .LVU265
 1019 000e 5A6B     		ldr	r2, [r3, #52]
 711:Drivers/STM32H7xx_HAL_Driver/Src/stm32h7xx_hal_dac.c ****     {
 1020              		.loc 1 711 7 view .LVU266
 1021 0010 12F4005F 		tst	r2, #8192
 1022 0014 09D1     		bne	.L73
 1023              	.LVL76:
 1024              	.L70:
 729:Drivers/STM32H7xx_HAL_Driver/Src/stm32h7xx_hal_dac.c ****   {
 1025              		.loc 1 729 3 is_stmt 1 view .LVU267
 729:Drivers/STM32H7xx_HAL_Driver/Src/stm32h7xx_hal_dac.c ****   {
 1026              		.loc 1 729 6 is_stmt 0 view .LVU268
 1027 0016 2368     		ldr	r3, [r4]
 1028 0018 1A68     		ldr	r2, [r3]
 729:Drivers/STM32H7xx_HAL_Driver/Src/stm32h7xx_hal_dac.c ****   {
 1029              		.loc 1 729 5 view .LVU269
 1030 001a 12F0005F 		tst	r2, #536870912
 1031 001e 03D0     		beq	.L69
 732:Drivers/STM32H7xx_HAL_Driver/Src/stm32h7xx_hal_dac.c ****     {
 1032              		.loc 1 732 5 is_stmt 1 view .LVU270
ARM GAS  /tmp/cc0KkzsK.s 			page 41


 732:Drivers/STM32H7xx_HAL_Driver/Src/stm32h7xx_hal_dac.c ****     {
 1033              		.loc 1 732 8 is_stmt 0 view .LVU271
 1034 0020 5A6B     		ldr	r2, [r3, #52]
 732:Drivers/STM32H7xx_HAL_Driver/Src/stm32h7xx_hal_dac.c ****     {
 1035              		.loc 1 732 7 view .LVU272
 1036 0022 12F0005F 		tst	r2, #536870912
 1037 0026 11D1     		bne	.L74
 1038              	.L69:
 750:Drivers/STM32H7xx_HAL_Driver/Src/stm32h7xx_hal_dac.c **** 
 1039              		.loc 1 750 1 view .LVU273
 1040 0028 10BD     		pop	{r4, pc}
 1041              	.LVL77:
 1042              	.L73:
 714:Drivers/STM32H7xx_HAL_Driver/Src/stm32h7xx_hal_dac.c ****       
 1043              		.loc 1 714 7 is_stmt 1 view .LVU274
 714:Drivers/STM32H7xx_HAL_Driver/Src/stm32h7xx_hal_dac.c ****       
 1044              		.loc 1 714 19 is_stmt 0 view .LVU275
 1045 002a 0422     		movs	r2, #4
 1046 002c 0271     		strb	r2, [r0, #4]
 717:Drivers/STM32H7xx_HAL_Driver/Src/stm32h7xx_hal_dac.c ****       
 1047              		.loc 1 717 7 is_stmt 1 view .LVU276
 1048 002e 0269     		ldr	r2, [r0, #16]
 1049 0030 42F00102 		orr	r2, r2, #1
 1050 0034 0261     		str	r2, [r0, #16]
 720:Drivers/STM32H7xx_HAL_Driver/Src/stm32h7xx_hal_dac.c ****       
 1051              		.loc 1 720 7 view .LVU277
 1052 0036 4FF40052 		mov	r2, #8192
 1053 003a 5A63     		str	r2, [r3, #52]
 723:Drivers/STM32H7xx_HAL_Driver/Src/stm32h7xx_hal_dac.c ****       
 1054              		.loc 1 723 7 view .LVU278
 1055 003c 0268     		ldr	r2, [r0]
 1056 003e 1368     		ldr	r3, [r2]
 1057 0040 23F48053 		bic	r3, r3, #4096
 1058 0044 1360     		str	r3, [r2]
 726:Drivers/STM32H7xx_HAL_Driver/Src/stm32h7xx_hal_dac.c ****     }
 1059              		.loc 1 726 7 view .LVU279
 1060 0046 FFF7FEFF 		bl	HAL_DAC_DMAUnderrunCallbackCh1
 1061              	.LVL78:
 726:Drivers/STM32H7xx_HAL_Driver/Src/stm32h7xx_hal_dac.c ****     }
 1062              		.loc 1 726 7 is_stmt 0 view .LVU280
 1063 004a E4E7     		b	.L70
 1064              	.L74:
 735:Drivers/STM32H7xx_HAL_Driver/Src/stm32h7xx_hal_dac.c ****       
 1065              		.loc 1 735 7 is_stmt 1 view .LVU281
 735:Drivers/STM32H7xx_HAL_Driver/Src/stm32h7xx_hal_dac.c ****       
 1066              		.loc 1 735 19 is_stmt 0 view .LVU282
 1067 004c 0422     		movs	r2, #4
 1068 004e 2271     		strb	r2, [r4, #4]
 738:Drivers/STM32H7xx_HAL_Driver/Src/stm32h7xx_hal_dac.c ****       
 1069              		.loc 1 738 7 is_stmt 1 view .LVU283
 1070 0050 2269     		ldr	r2, [r4, #16]
 1071 0052 42F00202 		orr	r2, r2, #2
 1072 0056 2261     		str	r2, [r4, #16]
 741:Drivers/STM32H7xx_HAL_Driver/Src/stm32h7xx_hal_dac.c ****       
 1073              		.loc 1 741 7 view .LVU284
 1074 0058 4FF00052 		mov	r2, #536870912
 1075 005c 5A63     		str	r2, [r3, #52]
ARM GAS  /tmp/cc0KkzsK.s 			page 42


 744:Drivers/STM32H7xx_HAL_Driver/Src/stm32h7xx_hal_dac.c ****       
 1076              		.loc 1 744 7 view .LVU285
 1077 005e 2268     		ldr	r2, [r4]
 1078 0060 1368     		ldr	r3, [r2]
 1079 0062 23F08053 		bic	r3, r3, #268435456
 1080 0066 1360     		str	r3, [r2]
 747:Drivers/STM32H7xx_HAL_Driver/Src/stm32h7xx_hal_dac.c ****     }
 1081              		.loc 1 747 7 view .LVU286
 1082 0068 2046     		mov	r0, r4
 1083 006a FFF7FEFF 		bl	HAL_DACEx_DMAUnderrunCallbackCh2
 1084              	.LVL79:
 750:Drivers/STM32H7xx_HAL_Driver/Src/stm32h7xx_hal_dac.c **** 
 1085              		.loc 1 750 1 is_stmt 0 view .LVU287
 1086 006e DBE7     		b	.L69
 1087              		.cfi_endproc
 1088              	.LFE145:
 1090              		.section	.text.HAL_DAC_GetValue,"ax",%progbits
 1091              		.align	1
 1092              		.global	HAL_DAC_GetValue
 1093              		.syntax unified
 1094              		.thumb
 1095              		.thumb_func
 1096              		.fpu fpv5-d16
 1098              	HAL_DAC_GetValue:
 1099              	.LVL80:
 1100              	.LFB151:
 889:Drivers/STM32H7xx_HAL_Driver/Src/stm32h7xx_hal_dac.c ****   /* Check the parameters */
 1101              		.loc 1 889 1 is_stmt 1 view -0
 1102              		.cfi_startproc
 1103              		@ args = 0, pretend = 0, frame = 0
 1104              		@ frame_needed = 0, uses_anonymous_args = 0
 1105              		@ link register save eliminated.
 891:Drivers/STM32H7xx_HAL_Driver/Src/stm32h7xx_hal_dac.c ****   
 1106              		.loc 1 891 3 view .LVU289
 894:Drivers/STM32H7xx_HAL_Driver/Src/stm32h7xx_hal_dac.c ****   {
 1107              		.loc 1 894 3 view .LVU290
 894:Drivers/STM32H7xx_HAL_Driver/Src/stm32h7xx_hal_dac.c ****   {
 1108              		.loc 1 894 5 is_stmt 0 view .LVU291
 1109 0000 11B9     		cbnz	r1, .L76
 896:Drivers/STM32H7xx_HAL_Driver/Src/stm32h7xx_hal_dac.c ****   }
 1110              		.loc 1 896 5 is_stmt 1 view .LVU292
 896:Drivers/STM32H7xx_HAL_Driver/Src/stm32h7xx_hal_dac.c ****   }
 1111              		.loc 1 896 16 is_stmt 0 view .LVU293
 1112 0002 0368     		ldr	r3, [r0]
 896:Drivers/STM32H7xx_HAL_Driver/Src/stm32h7xx_hal_dac.c ****   }
 1113              		.loc 1 896 26 view .LVU294
 1114 0004 D86A     		ldr	r0, [r3, #44]
 1115              	.LVL81:
 896:Drivers/STM32H7xx_HAL_Driver/Src/stm32h7xx_hal_dac.c ****   }
 1116              		.loc 1 896 26 view .LVU295
 1117 0006 7047     		bx	lr
 1118              	.LVL82:
 1119              	.L76:
 900:Drivers/STM32H7xx_HAL_Driver/Src/stm32h7xx_hal_dac.c ****   }
 1120              		.loc 1 900 5 is_stmt 1 view .LVU296
 900:Drivers/STM32H7xx_HAL_Driver/Src/stm32h7xx_hal_dac.c ****   }
 1121              		.loc 1 900 16 is_stmt 0 view .LVU297
ARM GAS  /tmp/cc0KkzsK.s 			page 43


 1122 0008 0368     		ldr	r3, [r0]
 900:Drivers/STM32H7xx_HAL_Driver/Src/stm32h7xx_hal_dac.c ****   }
 1123              		.loc 1 900 26 view .LVU298
 1124 000a 186B     		ldr	r0, [r3, #48]
 1125              	.LVL83:
 902:Drivers/STM32H7xx_HAL_Driver/Src/stm32h7xx_hal_dac.c **** /**
 1126              		.loc 1 902 1 view .LVU299
 1127 000c 7047     		bx	lr
 1128              		.cfi_endproc
 1129              	.LFE151:
 1131              		.section	.text.HAL_DAC_ConfigChannel,"ax",%progbits
 1132              		.align	1
 1133              		.global	HAL_DAC_ConfigChannel
 1134              		.syntax unified
 1135              		.thumb
 1136              		.thumb_func
 1137              		.fpu fpv5-d16
 1139              	HAL_DAC_ConfigChannel:
 1140              	.LVL84:
 1141              	.LFB152:
 915:Drivers/STM32H7xx_HAL_Driver/Src/stm32h7xx_hal_dac.c ****   uint32_t tmpreg1 = 0, tmpreg2 = 0;
 1142              		.loc 1 915 1 is_stmt 1 view -0
 1143              		.cfi_startproc
 1144              		@ args = 0, pretend = 0, frame = 0
 1145              		@ frame_needed = 0, uses_anonymous_args = 0
 915:Drivers/STM32H7xx_HAL_Driver/Src/stm32h7xx_hal_dac.c ****   uint32_t tmpreg1 = 0, tmpreg2 = 0;
 1146              		.loc 1 915 1 is_stmt 0 view .LVU301
 1147 0000 F8B5     		push	{r3, r4, r5, r6, r7, lr}
 1148              	.LCFI21:
 1149              		.cfi_def_cfa_offset 24
 1150              		.cfi_offset 3, -24
 1151              		.cfi_offset 4, -20
 1152              		.cfi_offset 5, -16
 1153              		.cfi_offset 6, -12
 1154              		.cfi_offset 7, -8
 1155              		.cfi_offset 14, -4
 916:Drivers/STM32H7xx_HAL_Driver/Src/stm32h7xx_hal_dac.c ****   uint32_t tickstart = 0;
 1156              		.loc 1 916 3 is_stmt 1 view .LVU302
 1157              	.LVL85:
 917:Drivers/STM32H7xx_HAL_Driver/Src/stm32h7xx_hal_dac.c ****    
 1158              		.loc 1 917 3 view .LVU303
 920:Drivers/STM32H7xx_HAL_Driver/Src/stm32h7xx_hal_dac.c ****   assert_param(IS_DAC_OUTPUT_BUFFER_STATE(sConfig->DAC_OutputBuffer));
 1159              		.loc 1 920 3 view .LVU304
 921:Drivers/STM32H7xx_HAL_Driver/Src/stm32h7xx_hal_dac.c ****   assert_param(IS_DAC_CHIP_CONNECTION(sConfig->DAC_ConnectOnChipPeripheral));
 1160              		.loc 1 921 3 view .LVU305
 922:Drivers/STM32H7xx_HAL_Driver/Src/stm32h7xx_hal_dac.c ****   assert_param(IS_DAC_TRIMMING(sConfig->DAC_UserTrimming));
 1161              		.loc 1 922 3 view .LVU306
 923:Drivers/STM32H7xx_HAL_Driver/Src/stm32h7xx_hal_dac.c ****   if ((sConfig->DAC_UserTrimming) == DAC_TRIMMING_USER)
 1162              		.loc 1 923 3 view .LVU307
 924:Drivers/STM32H7xx_HAL_Driver/Src/stm32h7xx_hal_dac.c ****   {
 1163              		.loc 1 924 3 view .LVU308
 926:Drivers/STM32H7xx_HAL_Driver/Src/stm32h7xx_hal_dac.c ****   }
 1164              		.loc 1 926 5 view .LVU309
 928:Drivers/STM32H7xx_HAL_Driver/Src/stm32h7xx_hal_dac.c ****   if ((sConfig->DAC_SampleAndHold) == DAC_SAMPLEANDHOLD_ENABLE)
 1165              		.loc 1 928 3 view .LVU310
 929:Drivers/STM32H7xx_HAL_Driver/Src/stm32h7xx_hal_dac.c ****   {
 1166              		.loc 1 929 3 view .LVU311
ARM GAS  /tmp/cc0KkzsK.s 			page 44


 931:Drivers/STM32H7xx_HAL_Driver/Src/stm32h7xx_hal_dac.c ****     assert_param(IS_DAC_HOLDTIME(sConfig->DAC_SampleAndHoldConfig.DAC_HoldTime));
 1167              		.loc 1 931 5 view .LVU312
 932:Drivers/STM32H7xx_HAL_Driver/Src/stm32h7xx_hal_dac.c ****     assert_param(IS_DAC_REFRESHTIME(sConfig->DAC_SampleAndHoldConfig.DAC_RefreshTime)); 
 1168              		.loc 1 932 5 view .LVU313
 933:Drivers/STM32H7xx_HAL_Driver/Src/stm32h7xx_hal_dac.c ****   }
 1169              		.loc 1 933 5 view .LVU314
 935:Drivers/STM32H7xx_HAL_Driver/Src/stm32h7xx_hal_dac.c ****  
 1170              		.loc 1 935 3 view .LVU315
 938:Drivers/STM32H7xx_HAL_Driver/Src/stm32h7xx_hal_dac.c ****   
 1171              		.loc 1 938 3 view .LVU316
 938:Drivers/STM32H7xx_HAL_Driver/Src/stm32h7xx_hal_dac.c ****   
 1172              		.loc 1 938 3 view .LVU317
 1173 0002 4379     		ldrb	r3, [r0, #5]	@ zero_extendqisi2
 1174 0004 012B     		cmp	r3, #1
 1175 0006 7FD0     		beq	.L87
 1176 0008 1546     		mov	r5, r2
 1177 000a 0E46     		mov	r6, r1
 1178 000c 0446     		mov	r4, r0
 938:Drivers/STM32H7xx_HAL_Driver/Src/stm32h7xx_hal_dac.c ****   
 1179              		.loc 1 938 3 discriminator 2 view .LVU318
 1180 000e 0123     		movs	r3, #1
 1181 0010 4371     		strb	r3, [r0, #5]
 941:Drivers/STM32H7xx_HAL_Driver/Src/stm32h7xx_hal_dac.c ****   
 1182              		.loc 1 941 3 discriminator 2 view .LVU319
 941:Drivers/STM32H7xx_HAL_Driver/Src/stm32h7xx_hal_dac.c ****   
 1183              		.loc 1 941 15 is_stmt 0 discriminator 2 view .LVU320
 1184 0012 0223     		movs	r3, #2
 1185 0014 0371     		strb	r3, [r0, #4]
 943:Drivers/STM32H7xx_HAL_Driver/Src/stm32h7xx_hal_dac.c ****   /* Sample on old configuration */ 
 1186              		.loc 1 943 3 is_stmt 1 discriminator 2 view .LVU321
 943:Drivers/STM32H7xx_HAL_Driver/Src/stm32h7xx_hal_dac.c ****   /* Sample on old configuration */ 
 1187              		.loc 1 943 13 is_stmt 0 discriminator 2 view .LVU322
 1188 0016 0B68     		ldr	r3, [r1]
 943:Drivers/STM32H7xx_HAL_Driver/Src/stm32h7xx_hal_dac.c ****   /* Sample on old configuration */ 
 1189              		.loc 1 943 5 discriminator 2 view .LVU323
 1190 0018 042B     		cmp	r3, #4
 1191 001a 30D0     		beq	.L89
 1192              	.LVL86:
 1193              	.L80:
 998:Drivers/STM32H7xx_HAL_Driver/Src/stm32h7xx_hal_dac.c ****   /* USER TRIMMING */
 1194              		.loc 1 998 3 is_stmt 1 view .LVU324
 998:Drivers/STM32H7xx_HAL_Driver/Src/stm32h7xx_hal_dac.c ****   /* USER TRIMMING */
 1195              		.loc 1 998 13 is_stmt 0 view .LVU325
 1196 001c 3369     		ldr	r3, [r6, #16]
 998:Drivers/STM32H7xx_HAL_Driver/Src/stm32h7xx_hal_dac.c ****   /* USER TRIMMING */
 1197              		.loc 1 998 5 view .LVU326
 1198 001e 012B     		cmp	r3, #1
 1199 0020 67D0     		beq	.L90
 1200              	.LVL87:
 1201              	.L86:
1016:Drivers/STM32H7xx_HAL_Driver/Src/stm32h7xx_hal_dac.c ****   /* Clear DAC_MCR_MODE2_0, DAC_MCR_MODE2_1 and DAC_MCR_MODE2_2 bits */
 1202              		.loc 1 1016 3 is_stmt 1 view .LVU327
1016:Drivers/STM32H7xx_HAL_Driver/Src/stm32h7xx_hal_dac.c ****   /* Clear DAC_MCR_MODE2_0, DAC_MCR_MODE2_1 and DAC_MCR_MODE2_2 bits */
 1203              		.loc 1 1016 17 is_stmt 0 view .LVU328
 1204 0022 2168     		ldr	r1, [r4]
1016:Drivers/STM32H7xx_HAL_Driver/Src/stm32h7xx_hal_dac.c ****   /* Clear DAC_MCR_MODE2_0, DAC_MCR_MODE2_1 and DAC_MCR_MODE2_2 bits */
 1205              		.loc 1 1016 11 view .LVU329
ARM GAS  /tmp/cc0KkzsK.s 			page 45


 1206 0024 CB6B     		ldr	r3, [r1, #60]
 1207              	.LVL88:
1018:Drivers/STM32H7xx_HAL_Driver/Src/stm32h7xx_hal_dac.c ****   /* Configure for the selected DAC channel: mode, buffer output & on chip peripheral connect */
 1208              		.loc 1 1018 3 is_stmt 1 view .LVU330
1018:Drivers/STM32H7xx_HAL_Driver/Src/stm32h7xx_hal_dac.c ****   /* Configure for the selected DAC channel: mode, buffer output & on chip peripheral connect */
 1209              		.loc 1 1018 44 is_stmt 0 view .LVU331
 1210 0026 0722     		movs	r2, #7
 1211 0028 AA40     		lsls	r2, r2, r5
1018:Drivers/STM32H7xx_HAL_Driver/Src/stm32h7xx_hal_dac.c ****   /* Configure for the selected DAC channel: mode, buffer output & on chip peripheral connect */
 1212              		.loc 1 1018 11 view .LVU332
 1213 002a 23EA0202 		bic	r2, r3, r2
 1214              	.LVL89:
1020:Drivers/STM32H7xx_HAL_Driver/Src/stm32h7xx_hal_dac.c ****   /* Calculate MCR register value depending on DAC_Channel */
 1215              		.loc 1 1020 3 is_stmt 1 view .LVU333
1020:Drivers/STM32H7xx_HAL_Driver/Src/stm32h7xx_hal_dac.c ****   /* Calculate MCR register value depending on DAC_Channel */
 1216              		.loc 1 1020 21 is_stmt 0 view .LVU334
 1217 002e 3368     		ldr	r3, [r6]
1020:Drivers/STM32H7xx_HAL_Driver/Src/stm32h7xx_hal_dac.c ****   /* Calculate MCR register value depending on DAC_Channel */
 1218              		.loc 1 1020 50 view .LVU335
 1219 0030 B068     		ldr	r0, [r6, #8]
1020:Drivers/STM32H7xx_HAL_Driver/Src/stm32h7xx_hal_dac.c ****   /* Calculate MCR register value depending on DAC_Channel */
 1220              		.loc 1 1020 41 view .LVU336
 1221 0032 0343     		orrs	r3, r3, r0
1020:Drivers/STM32H7xx_HAL_Driver/Src/stm32h7xx_hal_dac.c ****   /* Calculate MCR register value depending on DAC_Channel */
 1222              		.loc 1 1020 78 view .LVU337
 1223 0034 F068     		ldr	r0, [r6, #12]
1020:Drivers/STM32H7xx_HAL_Driver/Src/stm32h7xx_hal_dac.c ****   /* Calculate MCR register value depending on DAC_Channel */
 1224              		.loc 1 1020 11 view .LVU338
 1225 0036 0343     		orrs	r3, r3, r0
 1226              	.LVL90:
1022:Drivers/STM32H7xx_HAL_Driver/Src/stm32h7xx_hal_dac.c ****   /* Write to DAC MCR */
 1227              		.loc 1 1022 3 is_stmt 1 view .LVU339
1022:Drivers/STM32H7xx_HAL_Driver/Src/stm32h7xx_hal_dac.c ****   /* Write to DAC MCR */
 1228              		.loc 1 1022 22 is_stmt 0 view .LVU340
 1229 0038 AB40     		lsls	r3, r3, r5
 1230              	.LVL91:
1022:Drivers/STM32H7xx_HAL_Driver/Src/stm32h7xx_hal_dac.c ****   /* Write to DAC MCR */
 1231              		.loc 1 1022 11 view .LVU341
 1232 003a 1343     		orrs	r3, r3, r2
 1233              	.LVL92:
1024:Drivers/STM32H7xx_HAL_Driver/Src/stm32h7xx_hal_dac.c ****   
 1234              		.loc 1 1024 3 is_stmt 1 view .LVU342
1024:Drivers/STM32H7xx_HAL_Driver/Src/stm32h7xx_hal_dac.c ****   
 1235              		.loc 1 1024 23 is_stmt 0 view .LVU343
 1236 003c CB63     		str	r3, [r1, #60]
 1237              	.LVL93:
1027:Drivers/STM32H7xx_HAL_Driver/Src/stm32h7xx_hal_dac.c ****   
 1238              		.loc 1 1027 3 is_stmt 1 view .LVU344
 1239 003e 2168     		ldr	r1, [r4]
 1240 0040 0B68     		ldr	r3, [r1]
 1241              	.LVL94:
1027:Drivers/STM32H7xx_HAL_Driver/Src/stm32h7xx_hal_dac.c ****   
 1242              		.loc 1 1027 3 is_stmt 0 view .LVU345
 1243 0042 4FF48042 		mov	r2, #16384
 1244 0046 AA40     		lsls	r2, r2, r5
 1245 0048 23EA0203 		bic	r3, r3, r2
 1246 004c 0B60     		str	r3, [r1]
ARM GAS  /tmp/cc0KkzsK.s 			page 46


1030:Drivers/STM32H7xx_HAL_Driver/Src/stm32h7xx_hal_dac.c ****   /* Clear TENx, TSELx, WAVEx and MAMPx bits */
 1247              		.loc 1 1030 3 is_stmt 1 view .LVU346
1030:Drivers/STM32H7xx_HAL_Driver/Src/stm32h7xx_hal_dac.c ****   /* Clear TENx, TSELx, WAVEx and MAMPx bits */
 1248              		.loc 1 1030 17 is_stmt 0 view .LVU347
 1249 004e 2168     		ldr	r1, [r4]
1030:Drivers/STM32H7xx_HAL_Driver/Src/stm32h7xx_hal_dac.c ****   /* Clear TENx, TSELx, WAVEx and MAMPx bits */
 1250              		.loc 1 1030 11 view .LVU348
 1251 0050 0B68     		ldr	r3, [r1]
 1252              	.LVL95:
1032:Drivers/STM32H7xx_HAL_Driver/Src/stm32h7xx_hal_dac.c ****   /* Configure for the selected DAC channel: trigger */
 1253              		.loc 1 1032 3 is_stmt 1 view .LVU349
1032:Drivers/STM32H7xx_HAL_Driver/Src/stm32h7xx_hal_dac.c ****   /* Configure for the selected DAC channel: trigger */
 1254              		.loc 1 1032 87 is_stmt 0 view .LVU350
 1255 0052 40F6FE72 		movw	r2, #4094
 1256 0056 AA40     		lsls	r2, r2, r5
1032:Drivers/STM32H7xx_HAL_Driver/Src/stm32h7xx_hal_dac.c ****   /* Configure for the selected DAC channel: trigger */
 1257              		.loc 1 1032 11 view .LVU351
 1258 0058 23EA0202 		bic	r2, r3, r2
 1259              	.LVL96:
1035:Drivers/STM32H7xx_HAL_Driver/Src/stm32h7xx_hal_dac.c ****   /* Calculate CR register value depending on DAC_Channel */
 1260              		.loc 1 1035 3 is_stmt 1 view .LVU352
1035:Drivers/STM32H7xx_HAL_Driver/Src/stm32h7xx_hal_dac.c ****   /* Calculate CR register value depending on DAC_Channel */
 1261              		.loc 1 1035 11 is_stmt 0 view .LVU353
 1262 005c 7368     		ldr	r3, [r6, #4]
 1263              	.LVL97:
1037:Drivers/STM32H7xx_HAL_Driver/Src/stm32h7xx_hal_dac.c **** 
 1264              		.loc 1 1037 3 is_stmt 1 view .LVU354
1037:Drivers/STM32H7xx_HAL_Driver/Src/stm32h7xx_hal_dac.c **** 
 1265              		.loc 1 1037 22 is_stmt 0 view .LVU355
 1266 005e AB40     		lsls	r3, r3, r5
 1267              	.LVL98:
1037:Drivers/STM32H7xx_HAL_Driver/Src/stm32h7xx_hal_dac.c **** 
 1268              		.loc 1 1037 11 view .LVU356
 1269 0060 1343     		orrs	r3, r3, r2
 1270              	.LVL99:
1040:Drivers/STM32H7xx_HAL_Driver/Src/stm32h7xx_hal_dac.c ****       
 1271              		.loc 1 1040 3 is_stmt 1 view .LVU357
1040:Drivers/STM32H7xx_HAL_Driver/Src/stm32h7xx_hal_dac.c ****       
 1272              		.loc 1 1040 22 is_stmt 0 view .LVU358
 1273 0062 0B60     		str	r3, [r1]
 1274              	.LVL100:
1043:Drivers/STM32H7xx_HAL_Driver/Src/stm32h7xx_hal_dac.c ****   
 1275              		.loc 1 1043 3 is_stmt 1 view .LVU359
1043:Drivers/STM32H7xx_HAL_Driver/Src/stm32h7xx_hal_dac.c ****   
 1276              		.loc 1 1043 7 is_stmt 0 view .LVU360
 1277 0064 2168     		ldr	r1, [r4]
1043:Drivers/STM32H7xx_HAL_Driver/Src/stm32h7xx_hal_dac.c ****   
 1278              		.loc 1 1043 22 view .LVU361
 1279 0066 0B68     		ldr	r3, [r1]
 1280              	.LVL101:
1043:Drivers/STM32H7xx_HAL_Driver/Src/stm32h7xx_hal_dac.c ****   
 1281              		.loc 1 1043 40 view .LVU362
 1282 0068 C022     		movs	r2, #192
 1283 006a 02FA05F5 		lsl	r5, r2, r5
 1284              	.LVL102:
1043:Drivers/STM32H7xx_HAL_Driver/Src/stm32h7xx_hal_dac.c ****   
 1285              		.loc 1 1043 22 view .LVU363
ARM GAS  /tmp/cc0KkzsK.s 			page 47


 1286 006e 23EA0505 		bic	r5, r3, r5
 1287 0072 0D60     		str	r5, [r1]
1046:Drivers/STM32H7xx_HAL_Driver/Src/stm32h7xx_hal_dac.c ****   
 1288              		.loc 1 1046 3 is_stmt 1 view .LVU364
1046:Drivers/STM32H7xx_HAL_Driver/Src/stm32h7xx_hal_dac.c ****   
 1289              		.loc 1 1046 15 is_stmt 0 view .LVU365
 1290 0074 0123     		movs	r3, #1
 1291 0076 2371     		strb	r3, [r4, #4]
1049:Drivers/STM32H7xx_HAL_Driver/Src/stm32h7xx_hal_dac.c ****   
 1292              		.loc 1 1049 3 is_stmt 1 view .LVU366
1049:Drivers/STM32H7xx_HAL_Driver/Src/stm32h7xx_hal_dac.c ****   
 1293              		.loc 1 1049 3 view .LVU367
 1294 0078 0020     		movs	r0, #0
 1295 007a 6071     		strb	r0, [r4, #5]
1052:Drivers/STM32H7xx_HAL_Driver/Src/stm32h7xx_hal_dac.c **** }
 1296              		.loc 1 1052 3 view .LVU368
 1297              	.LVL103:
 1298              	.L79:
1053:Drivers/STM32H7xx_HAL_Driver/Src/stm32h7xx_hal_dac.c **** 
 1299              		.loc 1 1053 1 is_stmt 0 view .LVU369
 1300 007c F8BD     		pop	{r3, r4, r5, r6, r7, pc}
 1301              	.LVL104:
 1302              	.L89:
 947:Drivers/STM32H7xx_HAL_Driver/Src/stm32h7xx_hal_dac.c ****     {
 1303              		.loc 1 947 5 is_stmt 1 view .LVU370
 947:Drivers/STM32H7xx_HAL_Driver/Src/stm32h7xx_hal_dac.c ****     {
 1304              		.loc 1 947 8 is_stmt 0 view .LVU371
 1305 007e 72B1     		cbz	r2, .L91
 1306              	.LVL105:
 1307              	.L81:
 975:Drivers/STM32H7xx_HAL_Driver/Src/stm32h7xx_hal_dac.c ****       {
 1308              		.loc 1 975 20 view .LVU372
 1309 0080 2368     		ldr	r3, [r4]
 975:Drivers/STM32H7xx_HAL_Driver/Src/stm32h7xx_hal_dac.c ****       {
 1310              		.loc 1 975 30 view .LVU373
 1311 0082 5B6B     		ldr	r3, [r3, #52]
 975:Drivers/STM32H7xx_HAL_Driver/Src/stm32h7xx_hal_dac.c ****       {
 1312              		.loc 1 975 13 view .LVU374
 1313 0084 002B     		cmp	r3, #0
 1314 0086 25DA     		bge	.L92
 978:Drivers/STM32H7xx_HAL_Driver/Src/stm32h7xx_hal_dac.c ****         {
 1315              		.loc 1 978 9 is_stmt 1 view .LVU375
 978:Drivers/STM32H7xx_HAL_Driver/Src/stm32h7xx_hal_dac.c ****         {
 1316              		.loc 1 978 13 is_stmt 0 view .LVU376
 1317 0088 FFF7FEFF 		bl	HAL_GetTick
 1318              	.LVL106:
 978:Drivers/STM32H7xx_HAL_Driver/Src/stm32h7xx_hal_dac.c ****         {
 1319              		.loc 1 978 11 view .LVU377
 1320 008c 0128     		cmp	r0, #1
 1321 008e F7D9     		bls	.L81
 981:Drivers/STM32H7xx_HAL_Driver/Src/stm32h7xx_hal_dac.c **** 
 1322              		.loc 1 981 11 is_stmt 1 view .LVU378
 1323 0090 2369     		ldr	r3, [r4, #16]
 1324 0092 43F00803 		orr	r3, r3, #8
 1325 0096 2361     		str	r3, [r4, #16]
 984:Drivers/STM32H7xx_HAL_Driver/Src/stm32h7xx_hal_dac.c **** 
 1326              		.loc 1 984 11 view .LVU379
ARM GAS  /tmp/cc0KkzsK.s 			page 48


 984:Drivers/STM32H7xx_HAL_Driver/Src/stm32h7xx_hal_dac.c **** 
 1327              		.loc 1 984 23 is_stmt 0 view .LVU380
 1328 0098 0320     		movs	r0, #3
 1329 009a 2071     		strb	r0, [r4, #4]
 986:Drivers/STM32H7xx_HAL_Driver/Src/stm32h7xx_hal_dac.c ****         }
 1330              		.loc 1 986 11 is_stmt 1 view .LVU381
 986:Drivers/STM32H7xx_HAL_Driver/Src/stm32h7xx_hal_dac.c ****         }
 1331              		.loc 1 986 18 is_stmt 0 view .LVU382
 1332 009c EEE7     		b	.L79
 1333              	.LVL107:
 1334              	.L91:
 950:Drivers/STM32H7xx_HAL_Driver/Src/stm32h7xx_hal_dac.c ****       
 1335              		.loc 1 950 7 is_stmt 1 view .LVU383
 950:Drivers/STM32H7xx_HAL_Driver/Src/stm32h7xx_hal_dac.c ****       
 1336              		.loc 1 950 19 is_stmt 0 view .LVU384
 1337 009e FFF7FEFF 		bl	HAL_GetTick
 1338              	.LVL108:
 950:Drivers/STM32H7xx_HAL_Driver/Src/stm32h7xx_hal_dac.c ****       
 1339              		.loc 1 950 19 view .LVU385
 1340 00a2 0746     		mov	r7, r0
 1341              	.LVL109:
 954:Drivers/STM32H7xx_HAL_Driver/Src/stm32h7xx_hal_dac.c ****       {
 1342              		.loc 1 954 7 is_stmt 1 view .LVU386
 1343              	.L82:
 954:Drivers/STM32H7xx_HAL_Driver/Src/stm32h7xx_hal_dac.c ****       {
 1344              		.loc 1 954 20 is_stmt 0 view .LVU387
 1345 00a4 2368     		ldr	r3, [r4]
 954:Drivers/STM32H7xx_HAL_Driver/Src/stm32h7xx_hal_dac.c ****       {
 1346              		.loc 1 954 30 view .LVU388
 1347 00a6 5A6B     		ldr	r2, [r3, #52]
 954:Drivers/STM32H7xx_HAL_Driver/Src/stm32h7xx_hal_dac.c ****       {
 1348              		.loc 1 954 36 view .LVU389
 1349 00a8 184B     		ldr	r3, .L94
 1350 00aa 1340     		ands	r3, r3, r2
 954:Drivers/STM32H7xx_HAL_Driver/Src/stm32h7xx_hal_dac.c ****       {
 1351              		.loc 1 954 13 view .LVU390
 1352 00ac 5BB1     		cbz	r3, .L93
 957:Drivers/STM32H7xx_HAL_Driver/Src/stm32h7xx_hal_dac.c ****         {
 1353              		.loc 1 957 9 is_stmt 1 view .LVU391
 957:Drivers/STM32H7xx_HAL_Driver/Src/stm32h7xx_hal_dac.c ****         {
 1354              		.loc 1 957 13 is_stmt 0 view .LVU392
 1355 00ae FFF7FEFF 		bl	HAL_GetTick
 1356              	.LVL110:
 957:Drivers/STM32H7xx_HAL_Driver/Src/stm32h7xx_hal_dac.c ****         {
 1357              		.loc 1 957 27 view .LVU393
 1358 00b2 C01B     		subs	r0, r0, r7
 957:Drivers/STM32H7xx_HAL_Driver/Src/stm32h7xx_hal_dac.c ****         {
 1359              		.loc 1 957 11 view .LVU394
 1360 00b4 0128     		cmp	r0, #1
 1361 00b6 F5D9     		bls	.L82
 960:Drivers/STM32H7xx_HAL_Driver/Src/stm32h7xx_hal_dac.c **** 
 1362              		.loc 1 960 11 is_stmt 1 view .LVU395
 1363 00b8 2369     		ldr	r3, [r4, #16]
 1364 00ba 43F00803 		orr	r3, r3, #8
 1365 00be 2361     		str	r3, [r4, #16]
 963:Drivers/STM32H7xx_HAL_Driver/Src/stm32h7xx_hal_dac.c **** 
 1366              		.loc 1 963 11 view .LVU396
ARM GAS  /tmp/cc0KkzsK.s 			page 49


 963:Drivers/STM32H7xx_HAL_Driver/Src/stm32h7xx_hal_dac.c **** 
 1367              		.loc 1 963 23 is_stmt 0 view .LVU397
 1368 00c0 0320     		movs	r0, #3
 1369 00c2 2071     		strb	r0, [r4, #4]
 965:Drivers/STM32H7xx_HAL_Driver/Src/stm32h7xx_hal_dac.c ****         }
 1370              		.loc 1 965 11 is_stmt 1 view .LVU398
 965:Drivers/STM32H7xx_HAL_Driver/Src/stm32h7xx_hal_dac.c ****         }
 1371              		.loc 1 965 18 is_stmt 0 view .LVU399
 1372 00c4 DAE7     		b	.L79
 1373              	.L93:
 968:Drivers/STM32H7xx_HAL_Driver/Src/stm32h7xx_hal_dac.c ****       hdac->Instance->SHSR1 = sConfig->DAC_SampleAndHoldConfig.DAC_SampleTime;
 1374              		.loc 1 968 7 is_stmt 1 view .LVU400
 1375 00c6 0120     		movs	r0, #1
 1376 00c8 FFF7FEFF 		bl	HAL_Delay
 1377              	.LVL111:
 969:Drivers/STM32H7xx_HAL_Driver/Src/stm32h7xx_hal_dac.c ****     }
 1378              		.loc 1 969 7 view .LVU401
 969:Drivers/STM32H7xx_HAL_Driver/Src/stm32h7xx_hal_dac.c ****     }
 1379              		.loc 1 969 11 is_stmt 0 view .LVU402
 1380 00cc 2368     		ldr	r3, [r4]
 969:Drivers/STM32H7xx_HAL_Driver/Src/stm32h7xx_hal_dac.c ****     }
 1381              		.loc 1 969 63 view .LVU403
 1382 00ce B269     		ldr	r2, [r6, #24]
 969:Drivers/STM32H7xx_HAL_Driver/Src/stm32h7xx_hal_dac.c ****     }
 1383              		.loc 1 969 29 view .LVU404
 1384 00d0 1A64     		str	r2, [r3, #64]
 1385 00d2 05E0     		b	.L84
 1386              	.LVL112:
 1387              	.L92:
 989:Drivers/STM32H7xx_HAL_Driver/Src/stm32h7xx_hal_dac.c ****       hdac->Instance->SHSR2 = sConfig->DAC_SampleAndHoldConfig.DAC_SampleTime;
 1388              		.loc 1 989 7 is_stmt 1 view .LVU405
 1389 00d4 0120     		movs	r0, #1
 1390 00d6 FFF7FEFF 		bl	HAL_Delay
 1391              	.LVL113:
 990:Drivers/STM32H7xx_HAL_Driver/Src/stm32h7xx_hal_dac.c ****     }
 1392              		.loc 1 990 7 view .LVU406
 990:Drivers/STM32H7xx_HAL_Driver/Src/stm32h7xx_hal_dac.c ****     }
 1393              		.loc 1 990 11 is_stmt 0 view .LVU407
 1394 00da 2368     		ldr	r3, [r4]
 990:Drivers/STM32H7xx_HAL_Driver/Src/stm32h7xx_hal_dac.c ****     }
 1395              		.loc 1 990 63 view .LVU408
 1396 00dc B269     		ldr	r2, [r6, #24]
 990:Drivers/STM32H7xx_HAL_Driver/Src/stm32h7xx_hal_dac.c ****     }
 1397              		.loc 1 990 29 view .LVU409
 1398 00de 5A64     		str	r2, [r3, #68]
 1399              	.LVL114:
 1400              	.L84:
 993:Drivers/STM32H7xx_HAL_Driver/Src/stm32h7xx_hal_dac.c ****     /* RefreshTime */
 1401              		.loc 1 993 5 is_stmt 1 view .LVU410
 993:Drivers/STM32H7xx_HAL_Driver/Src/stm32h7xx_hal_dac.c ****     /* RefreshTime */
 1402              		.loc 1 993 61 is_stmt 0 view .LVU411
 1403 00e0 F369     		ldr	r3, [r6, #28]
 993:Drivers/STM32H7xx_HAL_Driver/Src/stm32h7xx_hal_dac.c ****     /* RefreshTime */
 1404              		.loc 1 993 9 view .LVU412
 1405 00e2 2268     		ldr	r2, [r4]
 993:Drivers/STM32H7xx_HAL_Driver/Src/stm32h7xx_hal_dac.c ****     /* RefreshTime */
 1406              		.loc 1 993 75 view .LVU413
ARM GAS  /tmp/cc0KkzsK.s 			page 50


 1407 00e4 AB40     		lsls	r3, r3, r5
 993:Drivers/STM32H7xx_HAL_Driver/Src/stm32h7xx_hal_dac.c ****     /* RefreshTime */
 1408              		.loc 1 993 26 view .LVU414
 1409 00e6 9364     		str	r3, [r2, #72]
 995:Drivers/STM32H7xx_HAL_Driver/Src/stm32h7xx_hal_dac.c ****   }
 1410              		.loc 1 995 5 is_stmt 1 view .LVU415
 995:Drivers/STM32H7xx_HAL_Driver/Src/stm32h7xx_hal_dac.c ****   }
 1411              		.loc 1 995 61 is_stmt 0 view .LVU416
 1412 00e8 336A     		ldr	r3, [r6, #32]
 995:Drivers/STM32H7xx_HAL_Driver/Src/stm32h7xx_hal_dac.c ****   }
 1413              		.loc 1 995 9 view .LVU417
 1414 00ea 2268     		ldr	r2, [r4]
 995:Drivers/STM32H7xx_HAL_Driver/Src/stm32h7xx_hal_dac.c ****   }
 1415              		.loc 1 995 78 view .LVU418
 1416 00ec AB40     		lsls	r3, r3, r5
 995:Drivers/STM32H7xx_HAL_Driver/Src/stm32h7xx_hal_dac.c ****   }
 1417              		.loc 1 995 26 view .LVU419
 1418 00ee D364     		str	r3, [r2, #76]
 1419 00f0 94E7     		b	.L80
 1420              	.L90:
1002:Drivers/STM32H7xx_HAL_Driver/Src/stm32h7xx_hal_dac.c ****   /* Clear trimming value */
 1421              		.loc 1 1002 3 is_stmt 1 view .LVU420
1002:Drivers/STM32H7xx_HAL_Driver/Src/stm32h7xx_hal_dac.c ****   /* Clear trimming value */
 1422              		.loc 1 1002 17 is_stmt 0 view .LVU421
 1423 00f2 2168     		ldr	r1, [r4]
1002:Drivers/STM32H7xx_HAL_Driver/Src/stm32h7xx_hal_dac.c ****   /* Clear trimming value */
 1424              		.loc 1 1002 11 view .LVU422
 1425 00f4 8B6B     		ldr	r3, [r1, #56]
 1426              	.LVL115:
1004:Drivers/STM32H7xx_HAL_Driver/Src/stm32h7xx_hal_dac.c ****   /* Configure for the selected trimming offset */
 1427              		.loc 1 1004 3 is_stmt 1 view .LVU423
1004:Drivers/STM32H7xx_HAL_Driver/Src/stm32h7xx_hal_dac.c ****   /* Configure for the selected trimming offset */
 1428              		.loc 1 1004 45 is_stmt 0 view .LVU424
 1429 00f6 1F22     		movs	r2, #31
 1430 00f8 AA40     		lsls	r2, r2, r5
1004:Drivers/STM32H7xx_HAL_Driver/Src/stm32h7xx_hal_dac.c ****   /* Configure for the selected trimming offset */
 1431              		.loc 1 1004 11 view .LVU425
 1432 00fa 23EA0202 		bic	r2, r3, r2
 1433              	.LVL116:
1006:Drivers/STM32H7xx_HAL_Driver/Src/stm32h7xx_hal_dac.c ****   /* Calculate CCR register value depending on DAC_Channel */
 1434              		.loc 1 1006 3 is_stmt 1 view .LVU426
1006:Drivers/STM32H7xx_HAL_Driver/Src/stm32h7xx_hal_dac.c ****   /* Calculate CCR register value depending on DAC_Channel */
 1435              		.loc 1 1006 11 is_stmt 0 view .LVU427
 1436 00fe 7369     		ldr	r3, [r6, #20]
 1437              	.LVL117:
1008:Drivers/STM32H7xx_HAL_Driver/Src/stm32h7xx_hal_dac.c ****   /* Write to DAC CCR */
 1438              		.loc 1 1008 3 is_stmt 1 view .LVU428
1008:Drivers/STM32H7xx_HAL_Driver/Src/stm32h7xx_hal_dac.c ****   /* Write to DAC CCR */
 1439              		.loc 1 1008 22 is_stmt 0 view .LVU429
 1440 0100 AB40     		lsls	r3, r3, r5
 1441              	.LVL118:
1008:Drivers/STM32H7xx_HAL_Driver/Src/stm32h7xx_hal_dac.c ****   /* Write to DAC CCR */
 1442              		.loc 1 1008 11 view .LVU430
 1443 0102 1343     		orrs	r3, r3, r2
 1444              	.LVL119:
1010:Drivers/STM32H7xx_HAL_Driver/Src/stm32h7xx_hal_dac.c ****   }
 1445              		.loc 1 1010 3 is_stmt 1 view .LVU431
ARM GAS  /tmp/cc0KkzsK.s 			page 51


1010:Drivers/STM32H7xx_HAL_Driver/Src/stm32h7xx_hal_dac.c ****   }
 1446              		.loc 1 1010 23 is_stmt 0 view .LVU432
 1447 0104 8B63     		str	r3, [r1, #56]
 1448              	.LVL120:
1010:Drivers/STM32H7xx_HAL_Driver/Src/stm32h7xx_hal_dac.c ****   }
 1449              		.loc 1 1010 23 view .LVU433
 1450 0106 8CE7     		b	.L86
 1451              	.LVL121:
 1452              	.L87:
 938:Drivers/STM32H7xx_HAL_Driver/Src/stm32h7xx_hal_dac.c ****   
 1453              		.loc 1 938 3 view .LVU434
 1454 0108 0220     		movs	r0, #2
 1455              	.LVL122:
 938:Drivers/STM32H7xx_HAL_Driver/Src/stm32h7xx_hal_dac.c ****   
 1456              		.loc 1 938 3 view .LVU435
 1457 010a B7E7     		b	.L79
 1458              	.L95:
 1459              		.align	2
 1460              	.L94:
 1461 010c 00800020 		.word	536903680
 1462              		.cfi_endproc
 1463              	.LFE152:
 1465              		.section	.text.HAL_DAC_GetState,"ax",%progbits
 1466              		.align	1
 1467              		.global	HAL_DAC_GetState
 1468              		.syntax unified
 1469              		.thumb
 1470              		.thumb_func
 1471              		.fpu fpv5-d16
 1473              	HAL_DAC_GetState:
 1474              	.LVL123:
 1475              	.LFB153:
1084:Drivers/STM32H7xx_HAL_Driver/Src/stm32h7xx_hal_dac.c ****   /* Return DAC handle state */
 1476              		.loc 1 1084 1 is_stmt 1 view -0
 1477              		.cfi_startproc
 1478              		@ args = 0, pretend = 0, frame = 0
 1479              		@ frame_needed = 0, uses_anonymous_args = 0
 1480              		@ link register save eliminated.
1086:Drivers/STM32H7xx_HAL_Driver/Src/stm32h7xx_hal_dac.c **** }
 1481              		.loc 1 1086 3 view .LVU437
1086:Drivers/STM32H7xx_HAL_Driver/Src/stm32h7xx_hal_dac.c **** }
 1482              		.loc 1 1086 14 is_stmt 0 view .LVU438
 1483 0000 0079     		ldrb	r0, [r0, #4]	@ zero_extendqisi2
 1484              	.LVL124:
1087:Drivers/STM32H7xx_HAL_Driver/Src/stm32h7xx_hal_dac.c **** 
 1485              		.loc 1 1087 1 view .LVU439
 1486 0002 7047     		bx	lr
 1487              		.cfi_endproc
 1488              	.LFE153:
 1490              		.section	.text.HAL_DAC_GetError,"ax",%progbits
 1491              		.align	1
 1492              		.global	HAL_DAC_GetError
 1493              		.syntax unified
 1494              		.thumb
 1495              		.thumb_func
 1496              		.fpu fpv5-d16
 1498              	HAL_DAC_GetError:
ARM GAS  /tmp/cc0KkzsK.s 			page 52


 1499              	.LVL125:
 1500              	.LFB154:
1096:Drivers/STM32H7xx_HAL_Driver/Src/stm32h7xx_hal_dac.c ****   return hdac->ErrorCode;
 1501              		.loc 1 1096 1 is_stmt 1 view -0
 1502              		.cfi_startproc
 1503              		@ args = 0, pretend = 0, frame = 0
 1504              		@ frame_needed = 0, uses_anonymous_args = 0
 1505              		@ link register save eliminated.
1097:Drivers/STM32H7xx_HAL_Driver/Src/stm32h7xx_hal_dac.c **** }
 1506              		.loc 1 1097 3 view .LVU441
1097:Drivers/STM32H7xx_HAL_Driver/Src/stm32h7xx_hal_dac.c **** }
 1507              		.loc 1 1097 14 is_stmt 0 view .LVU442
 1508 0000 0069     		ldr	r0, [r0, #16]
 1509              	.LVL126:
1098:Drivers/STM32H7xx_HAL_Driver/Src/stm32h7xx_hal_dac.c **** 
 1510              		.loc 1 1098 1 view .LVU443
 1511 0002 7047     		bx	lr
 1512              		.cfi_endproc
 1513              	.LFE154:
 1515              		.text
 1516              	.Letext0:
 1517              		.file 2 "/usr/arm-none-eabi/include/machine/_default_types.h"
 1518              		.file 3 "/usr/arm-none-eabi/include/sys/_stdint.h"
 1519              		.file 4 "Drivers/CMSIS/Include/core_cm7.h"
 1520              		.file 5 "Drivers/CMSIS/Device/ST/STM32H7xx/Include/system_stm32h7xx.h"
 1521              		.file 6 "Drivers/CMSIS/Device/ST/STM32H7xx/Include/stm32h743xx.h"
 1522              		.file 7 "/usr/arm-none-eabi/include/sys/lock.h"
 1523              		.file 8 "/usr/arm-none-eabi/include/sys/_types.h"
 1524              		.file 9 "/usr/lib/gcc/arm-none-eabi/8.2.0/include/stddef.h"
 1525              		.file 10 "/usr/arm-none-eabi/include/sys/reent.h"
 1526              		.file 11 "Drivers/CMSIS/Device/ST/STM32H7xx/Include/stm32h7xx.h"
 1527              		.file 12 "Drivers/STM32H7xx_HAL_Driver/Inc/stm32h7xx_hal_def.h"
 1528              		.file 13 "Drivers/STM32H7xx_HAL_Driver/Inc/stm32h7xx_hal_dma.h"
 1529              		.file 14 "Drivers/STM32H7xx_HAL_Driver/Inc/stm32h7xx_hal_dac.h"
 1530              		.file 15 "Drivers/STM32H7xx_HAL_Driver/Inc/stm32h7xx_hal.h"
 1531              		.file 16 "Drivers/STM32H7xx_HAL_Driver/Inc/stm32h7xx_hal_dac_ex.h"
ARM GAS  /tmp/cc0KkzsK.s 			page 53

