ARM GAS  /tmp/ccgxYAWl.s 			page 1


   1              		.cpu cortex-m7
   2              		.eabi_attribute 28, 1
   3              		.eabi_attribute 20, 1
   4              		.eabi_attribute 21, 1
   5              		.eabi_attribute 23, 3
   6              		.eabi_attribute 24, 1
   7              		.eabi_attribute 25, 1
   8              		.eabi_attribute 26, 1
   9              		.eabi_attribute 30, 1
  10              		.eabi_attribute 34, 1
  11              		.eabi_attribute 18, 4
  12              		.file	"stm32h7xx_hal_hsem.c"
  13              		.text
  14              	.Ltext0:
  15              		.cfi_sections	.debug_frame
  16              		.section	.text.HAL_HSEM_Take,"ax",%progbits
  17              		.align	1
  18              		.global	HAL_HSEM_Take
  19              		.arch armv7e-m
  20              		.syntax unified
  21              		.thumb
  22              		.thumb_func
  23              		.fpu fpv5-d16
  25              	HAL_HSEM_Take:
  26              	.LVL0:
  27              	.LFB137:
  28              		.file 1 "Drivers/STM32H7xx_HAL_Driver/Src/stm32h7xx_hal_hsem.c"
   1:Drivers/STM32H7xx_HAL_Driver/Src/stm32h7xx_hal_hsem.c **** /**
   2:Drivers/STM32H7xx_HAL_Driver/Src/stm32h7xx_hal_hsem.c ****   ******************************************************************************
   3:Drivers/STM32H7xx_HAL_Driver/Src/stm32h7xx_hal_hsem.c ****   * @file    stm32h7xx_hal_hsem.c
   4:Drivers/STM32H7xx_HAL_Driver/Src/stm32h7xx_hal_hsem.c ****   * @author  MCD Application Team
   5:Drivers/STM32H7xx_HAL_Driver/Src/stm32h7xx_hal_hsem.c ****   * @brief   HSEM HAL module driver.
   6:Drivers/STM32H7xx_HAL_Driver/Src/stm32h7xx_hal_hsem.c ****   *          This file provides firmware functions to manage the following 
   7:Drivers/STM32H7xx_HAL_Driver/Src/stm32h7xx_hal_hsem.c ****   *          functionalities of the semaphore peripheral:
   8:Drivers/STM32H7xx_HAL_Driver/Src/stm32h7xx_hal_hsem.c ****   *           + Semaphore Take function (2-Step Procedure) , non blocking
   9:Drivers/STM32H7xx_HAL_Driver/Src/stm32h7xx_hal_hsem.c ****   *           + Semaphore FastTake function (1-Step Procedure) , non blocking
  10:Drivers/STM32H7xx_HAL_Driver/Src/stm32h7xx_hal_hsem.c ****   *           + Semaphore Status check
  11:Drivers/STM32H7xx_HAL_Driver/Src/stm32h7xx_hal_hsem.c ****   *           + Semaphore Clear Key Set and Get
  12:Drivers/STM32H7xx_HAL_Driver/Src/stm32h7xx_hal_hsem.c ****   *           + Release and release all functions
  13:Drivers/STM32H7xx_HAL_Driver/Src/stm32h7xx_hal_hsem.c ****   *           + Semaphore notification enabling and disabling and callnack functions
  14:Drivers/STM32H7xx_HAL_Driver/Src/stm32h7xx_hal_hsem.c ****   *           + IRQ handler management
  15:Drivers/STM32H7xx_HAL_Driver/Src/stm32h7xx_hal_hsem.c ****   *
  16:Drivers/STM32H7xx_HAL_Driver/Src/stm32h7xx_hal_hsem.c ****   *      
  17:Drivers/STM32H7xx_HAL_Driver/Src/stm32h7xx_hal_hsem.c ****   @verbatim
  18:Drivers/STM32H7xx_HAL_Driver/Src/stm32h7xx_hal_hsem.c ****   ==============================================================================
  19:Drivers/STM32H7xx_HAL_Driver/Src/stm32h7xx_hal_hsem.c ****                      ##### How to use this driver #####
  20:Drivers/STM32H7xx_HAL_Driver/Src/stm32h7xx_hal_hsem.c ****   ==============================================================================
  21:Drivers/STM32H7xx_HAL_Driver/Src/stm32h7xx_hal_hsem.c ****   [..]
  22:Drivers/STM32H7xx_HAL_Driver/Src/stm32h7xx_hal_hsem.c ****       (#)Take a semaphore In 2-Step mode Using function HAL_HSEM_Take. This function takes as param
  23:Drivers/STM32H7xx_HAL_Driver/Src/stm32h7xx_hal_hsem.c ****            (++) the semaphore ID from 0 to 31
  24:Drivers/STM32H7xx_HAL_Driver/Src/stm32h7xx_hal_hsem.c ****            (++) the process ID from 0 to 255
  25:Drivers/STM32H7xx_HAL_Driver/Src/stm32h7xx_hal_hsem.c ****       (#) Fast Take semaphore In 1-Step mode Using function HAL_HSEM_FastTake. This function takes 
  26:Drivers/STM32H7xx_HAL_Driver/Src/stm32h7xx_hal_hsem.c ****            (++) the semaphore ID from 0_ID to 31. Note that the process ID value is implicitly assu
  27:Drivers/STM32H7xx_HAL_Driver/Src/stm32h7xx_hal_hsem.c ****       (#) Check if a semaphore is Taken using function HAL_HSEM_IsSemTaken. This function takes as 
  28:Drivers/STM32H7xx_HAL_Driver/Src/stm32h7xx_hal_hsem.c ****           (++) the semaphore ID from 0_ID to 31
  29:Drivers/STM32H7xx_HAL_Driver/Src/stm32h7xx_hal_hsem.c ****           (++) It returns 1 if the given semaphore is taken otherwise (Free) zero.
  30:Drivers/STM32H7xx_HAL_Driver/Src/stm32h7xx_hal_hsem.c ****       (#)Release a semaphore using function with HAL_HSEM_Release. This function takes as parameter
ARM GAS  /tmp/ccgxYAWl.s 			page 2


  31:Drivers/STM32H7xx_HAL_Driver/Src/stm32h7xx_hal_hsem.c ****            (++) the semaphore ID from 0 to 31
  32:Drivers/STM32H7xx_HAL_Driver/Src/stm32h7xx_hal_hsem.c ****            (++) the process ID from 0 to 255:
  33:Drivers/STM32H7xx_HAL_Driver/Src/stm32h7xx_hal_hsem.c ****            (++) Note: If ProcessID and MasterID match, semaphore is freed, and an interrupt
  34:Drivers/STM32H7xx_HAL_Driver/Src/stm32h7xx_hal_hsem.c ****          may be generated when enabled (notification activated). If ProcessID or MasterID does not 
  35:Drivers/STM32H7xx_HAL_Driver/Src/stm32h7xx_hal_hsem.c ****          semaphore remains taken (locked).
  36:Drivers/STM32H7xx_HAL_Driver/Src/stm32h7xx_hal_hsem.c ****          
  37:Drivers/STM32H7xx_HAL_Driver/Src/stm32h7xx_hal_hsem.c ****       (#)Release all semaphores at once taken by a given Master using function HAL_HSEM_Release_All
  38:Drivers/STM32H7xx_HAL_Driver/Src/stm32h7xx_hal_hsem.c ****           This function takes as parameters :
  39:Drivers/STM32H7xx_HAL_Driver/Src/stm32h7xx_hal_hsem.c ****            (++) the Release Key (value from 0 to 0xFFFF) can be Set or Get respectively by 
  40:Drivers/STM32H7xx_HAL_Driver/Src/stm32h7xx_hal_hsem.c ****               HAL_HSEM_SetClearKey() or HAL_HSEM_GetClearKey functions
  41:Drivers/STM32H7xx_HAL_Driver/Src/stm32h7xx_hal_hsem.c ****            (++) the Master ID:
  42:Drivers/STM32H7xx_HAL_Driver/Src/stm32h7xx_hal_hsem.c ****            (++) Note: If the Key and MasterID match, all semaphores taken by the given CPU that cor
  43:Drivers/STM32H7xx_HAL_Driver/Src/stm32h7xx_hal_hsem.c ****            to MasterID  will be freed, and an interrupt may be generated when enabled (notification
  44:Drivers/STM32H7xx_HAL_Driver/Src/stm32h7xx_hal_hsem.c ****            Key or the MasterID doesn't match, semaphores remains taken (locked).
  45:Drivers/STM32H7xx_HAL_Driver/Src/stm32h7xx_hal_hsem.c ****               
  46:Drivers/STM32H7xx_HAL_Driver/Src/stm32h7xx_hal_hsem.c ****       (#)Semaphores Release all key functions:
  47:Drivers/STM32H7xx_HAL_Driver/Src/stm32h7xx_hal_hsem.c ****          (++)  HAL_HSEM_SetClearKey() to set semaphore release all Key
  48:Drivers/STM32H7xx_HAL_Driver/Src/stm32h7xx_hal_hsem.c ****          (++)  HAL_HSEM_GetClearKey() to get release all Key
  49:Drivers/STM32H7xx_HAL_Driver/Src/stm32h7xx_hal_hsem.c ****       (#)Semaphores notification functions :
  50:Drivers/STM32H7xx_HAL_Driver/Src/stm32h7xx_hal_hsem.c ****          (++)  HAL_HSEM_ActivateNotification to activate a notification callback on
  51:Drivers/STM32H7xx_HAL_Driver/Src/stm32h7xx_hal_hsem.c ****                a given semaphores Mask (bitfield). When one or more semaphores defined by the mask 
  52:Drivers/STM32H7xx_HAL_Driver/Src/stm32h7xx_hal_hsem.c ****                the callback HAL_HSEM_FreeCallback will be asserted giving as parameters a mask of t
  53:Drivers/STM32H7xx_HAL_Driver/Src/stm32h7xx_hal_hsem.c ****                semaphores (bitfield).       
  54:Drivers/STM32H7xx_HAL_Driver/Src/stm32h7xx_hal_hsem.c **** 
  55:Drivers/STM32H7xx_HAL_Driver/Src/stm32h7xx_hal_hsem.c ****          (++)  HAL_HSEM_DeactivateNotification to deactivate the notification of a given semaphores
  56:Drivers/STM32H7xx_HAL_Driver/Src/stm32h7xx_hal_hsem.c ****          (++) See the description of the macro __HAL_HSEM_SEMID_TO_MASK to check how to calculate a
  57:Drivers/STM32H7xx_HAL_Driver/Src/stm32h7xx_hal_hsem.c ****                 Used by the notification functions
  58:Drivers/STM32H7xx_HAL_Driver/Src/stm32h7xx_hal_hsem.c ****      *** HSEM HAL driver macros list ***
  59:Drivers/STM32H7xx_HAL_Driver/Src/stm32h7xx_hal_hsem.c ****      ============================================= 
  60:Drivers/STM32H7xx_HAL_Driver/Src/stm32h7xx_hal_hsem.c ****      [..] Below the list of most used macros in HSEM HAL driver.
  61:Drivers/STM32H7xx_HAL_Driver/Src/stm32h7xx_hal_hsem.c **** 
  62:Drivers/STM32H7xx_HAL_Driver/Src/stm32h7xx_hal_hsem.c ****       (+) __HAL_HSEM_SEMID_TO_MASK: Helper macro to convert a Semaphore ID to a Mask.
  63:Drivers/STM32H7xx_HAL_Driver/Src/stm32h7xx_hal_hsem.c ****       [..] Example of use :
  64:Drivers/STM32H7xx_HAL_Driver/Src/stm32h7xx_hal_hsem.c ****       [..] mask = __HAL_HSEM_SEMID_TO_MASK(8)  |  __HAL_HSEM_SEMID_TO_MASK(21) | __HAL_HSEM_SEMID_T
  65:Drivers/STM32H7xx_HAL_Driver/Src/stm32h7xx_hal_hsem.c ****       [..] All next macros take as parameter a semaphore Mask (bitfiled) that can be constructed us
  66:Drivers/STM32H7xx_HAL_Driver/Src/stm32h7xx_hal_hsem.c ****       (+) __HAL_HSEM_ENABLE_IT: Enable the specified semaphores Mask interrupts.
  67:Drivers/STM32H7xx_HAL_Driver/Src/stm32h7xx_hal_hsem.c ****       (+) __HAL_HSEM_DISABLE_IT: Disable the specified semaphores Mask interrupts.
  68:Drivers/STM32H7xx_HAL_Driver/Src/stm32h7xx_hal_hsem.c ****       (+) __HAL_HSEM_GET_IT: Checks whether the specified semaphore interrupt has occurred or not. 
  69:Drivers/STM32H7xx_HAL_Driver/Src/stm32h7xx_hal_hsem.c ****       (+) __HAL_HSEM_GET_FLAG: Get the semaphores status release flags.
  70:Drivers/STM32H7xx_HAL_Driver/Src/stm32h7xx_hal_hsem.c ****       (+) __HAL_HSEM_CLEAR_FLAG: Clear the semaphores status release flags.
  71:Drivers/STM32H7xx_HAL_Driver/Src/stm32h7xx_hal_hsem.c **** 
  72:Drivers/STM32H7xx_HAL_Driver/Src/stm32h7xx_hal_hsem.c ****   @endverbatim
  73:Drivers/STM32H7xx_HAL_Driver/Src/stm32h7xx_hal_hsem.c ****   ******************************************************************************
  74:Drivers/STM32H7xx_HAL_Driver/Src/stm32h7xx_hal_hsem.c ****   * @attention
  75:Drivers/STM32H7xx_HAL_Driver/Src/stm32h7xx_hal_hsem.c ****   *
  76:Drivers/STM32H7xx_HAL_Driver/Src/stm32h7xx_hal_hsem.c ****   * <h2><center>&copy; COPYRIGHT(c) 2017 STMicroelectronics</center></h2>
  77:Drivers/STM32H7xx_HAL_Driver/Src/stm32h7xx_hal_hsem.c ****   *
  78:Drivers/STM32H7xx_HAL_Driver/Src/stm32h7xx_hal_hsem.c ****   * Redistribution and use in source and binary forms, with or without modification,
  79:Drivers/STM32H7xx_HAL_Driver/Src/stm32h7xx_hal_hsem.c ****   * are permitted provided that the following conditions are met:
  80:Drivers/STM32H7xx_HAL_Driver/Src/stm32h7xx_hal_hsem.c ****   *   1. Redistributions of source code must retain the above copyright notice,
  81:Drivers/STM32H7xx_HAL_Driver/Src/stm32h7xx_hal_hsem.c ****   *      this list of conditions and the following disclaimer.
  82:Drivers/STM32H7xx_HAL_Driver/Src/stm32h7xx_hal_hsem.c ****   *   2. Redistributions in binary form must reproduce the above copyright notice,
  83:Drivers/STM32H7xx_HAL_Driver/Src/stm32h7xx_hal_hsem.c ****   *      this list of conditions and the following disclaimer in the documentation
  84:Drivers/STM32H7xx_HAL_Driver/Src/stm32h7xx_hal_hsem.c ****   *      and/or other materials provided with the distribution.
  85:Drivers/STM32H7xx_HAL_Driver/Src/stm32h7xx_hal_hsem.c ****   *   3. Neither the name of STMicroelectronics nor the names of its contributors
  86:Drivers/STM32H7xx_HAL_Driver/Src/stm32h7xx_hal_hsem.c ****   *      may be used to endorse or promote products derived from this software
  87:Drivers/STM32H7xx_HAL_Driver/Src/stm32h7xx_hal_hsem.c ****   *      without specific prior written permission.
ARM GAS  /tmp/ccgxYAWl.s 			page 3


  88:Drivers/STM32H7xx_HAL_Driver/Src/stm32h7xx_hal_hsem.c ****   *
  89:Drivers/STM32H7xx_HAL_Driver/Src/stm32h7xx_hal_hsem.c ****   * THIS SOFTWARE IS PROVIDED BY THE COPYRIGHT HOLDERS AND CONTRIBUTORS "AS IS"
  90:Drivers/STM32H7xx_HAL_Driver/Src/stm32h7xx_hal_hsem.c ****   * AND ANY EXPRESS OR IMPLIED WARRANTIES, INCLUDING, BUT NOT LIMITED TO, THE
  91:Drivers/STM32H7xx_HAL_Driver/Src/stm32h7xx_hal_hsem.c ****   * IMPLIED WARRANTIES OF MERCHANTABILITY AND FITNESS FOR A PARTICULAR PURPOSE ARE
  92:Drivers/STM32H7xx_HAL_Driver/Src/stm32h7xx_hal_hsem.c ****   * DISCLAIMED. IN NO EVENT SHALL THE COPYRIGHT HOLDER OR CONTRIBUTORS BE LIABLE
  93:Drivers/STM32H7xx_HAL_Driver/Src/stm32h7xx_hal_hsem.c ****   * FOR ANY DIRECT, INDIRECT, INCIDENTAL, SPECIAL, EXEMPLARY, OR CONSEQUENTIAL
  94:Drivers/STM32H7xx_HAL_Driver/Src/stm32h7xx_hal_hsem.c ****   * DAMAGES (INCLUDING, BUT NOT LIMITED TO, PROCUREMENT OF SUBSTITUTE GOODS OR
  95:Drivers/STM32H7xx_HAL_Driver/Src/stm32h7xx_hal_hsem.c ****   * SERVICES; LOSS OF USE, DATA, OR PROFITS; OR BUSINESS INTERRUPTION) HOWEVER
  96:Drivers/STM32H7xx_HAL_Driver/Src/stm32h7xx_hal_hsem.c ****   * CAUSED AND ON ANY THEORY OF LIABILITY, WHETHER IN CONTRACT, STRICT LIABILITY,
  97:Drivers/STM32H7xx_HAL_Driver/Src/stm32h7xx_hal_hsem.c ****   * OR TORT (INCLUDING NEGLIGENCE OR OTHERWISE) ARISING IN ANY WAY OUT OF THE USE
  98:Drivers/STM32H7xx_HAL_Driver/Src/stm32h7xx_hal_hsem.c ****   * OF THIS SOFTWARE, EVEN IF ADVISED OF THE POSSIBILITY OF SUCH DAMAGE.
  99:Drivers/STM32H7xx_HAL_Driver/Src/stm32h7xx_hal_hsem.c ****   *
 100:Drivers/STM32H7xx_HAL_Driver/Src/stm32h7xx_hal_hsem.c ****   ******************************************************************************
 101:Drivers/STM32H7xx_HAL_Driver/Src/stm32h7xx_hal_hsem.c ****   */ 
 102:Drivers/STM32H7xx_HAL_Driver/Src/stm32h7xx_hal_hsem.c **** 
 103:Drivers/STM32H7xx_HAL_Driver/Src/stm32h7xx_hal_hsem.c **** /* Includes ------------------------------------------------------------------*/
 104:Drivers/STM32H7xx_HAL_Driver/Src/stm32h7xx_hal_hsem.c **** #include "stm32h7xx_hal.h"
 105:Drivers/STM32H7xx_HAL_Driver/Src/stm32h7xx_hal_hsem.c **** 
 106:Drivers/STM32H7xx_HAL_Driver/Src/stm32h7xx_hal_hsem.c **** /** @addtogroup STM32H7xx_HAL_Driver
 107:Drivers/STM32H7xx_HAL_Driver/Src/stm32h7xx_hal_hsem.c ****   * @{
 108:Drivers/STM32H7xx_HAL_Driver/Src/stm32h7xx_hal_hsem.c ****   */
 109:Drivers/STM32H7xx_HAL_Driver/Src/stm32h7xx_hal_hsem.c **** 
 110:Drivers/STM32H7xx_HAL_Driver/Src/stm32h7xx_hal_hsem.c **** /** @defgroup HSEM HSEM
 111:Drivers/STM32H7xx_HAL_Driver/Src/stm32h7xx_hal_hsem.c ****   * @brief HSEM HAL module driver
 112:Drivers/STM32H7xx_HAL_Driver/Src/stm32h7xx_hal_hsem.c ****   * @{
 113:Drivers/STM32H7xx_HAL_Driver/Src/stm32h7xx_hal_hsem.c ****   */
 114:Drivers/STM32H7xx_HAL_Driver/Src/stm32h7xx_hal_hsem.c **** 
 115:Drivers/STM32H7xx_HAL_Driver/Src/stm32h7xx_hal_hsem.c **** #ifdef HAL_HSEM_MODULE_ENABLED
 116:Drivers/STM32H7xx_HAL_Driver/Src/stm32h7xx_hal_hsem.c **** 
 117:Drivers/STM32H7xx_HAL_Driver/Src/stm32h7xx_hal_hsem.c **** /* Private typedef -----------------------------------------------------------*/
 118:Drivers/STM32H7xx_HAL_Driver/Src/stm32h7xx_hal_hsem.c **** /* Private define ------------------------------------------------------------*/
 119:Drivers/STM32H7xx_HAL_Driver/Src/stm32h7xx_hal_hsem.c **** /* Private macro -------------------------------------------------------------*/
 120:Drivers/STM32H7xx_HAL_Driver/Src/stm32h7xx_hal_hsem.c **** /* Private variables ---------------------------------------------------------*/
 121:Drivers/STM32H7xx_HAL_Driver/Src/stm32h7xx_hal_hsem.c **** /* Private function prototypes -----------------------------------------------*/
 122:Drivers/STM32H7xx_HAL_Driver/Src/stm32h7xx_hal_hsem.c **** /* Private functions ---------------------------------------------------------*/
 123:Drivers/STM32H7xx_HAL_Driver/Src/stm32h7xx_hal_hsem.c **** /* Exported functions --------------------------------------------------------*/
 124:Drivers/STM32H7xx_HAL_Driver/Src/stm32h7xx_hal_hsem.c ****     
 125:Drivers/STM32H7xx_HAL_Driver/Src/stm32h7xx_hal_hsem.c **** /** @defgroup HSEM_Exported_Functions  HSEM Exported Functions
 126:Drivers/STM32H7xx_HAL_Driver/Src/stm32h7xx_hal_hsem.c ****   * @{
 127:Drivers/STM32H7xx_HAL_Driver/Src/stm32h7xx_hal_hsem.c ****   */
 128:Drivers/STM32H7xx_HAL_Driver/Src/stm32h7xx_hal_hsem.c **** 
 129:Drivers/STM32H7xx_HAL_Driver/Src/stm32h7xx_hal_hsem.c **** /** @defgroup HSEM_Exported_Functions_Group1 Take and Release functions
 130:Drivers/STM32H7xx_HAL_Driver/Src/stm32h7xx_hal_hsem.c ****  *  @brief    HSEM Take and Release functions 
 131:Drivers/STM32H7xx_HAL_Driver/Src/stm32h7xx_hal_hsem.c ****  *
 132:Drivers/STM32H7xx_HAL_Driver/Src/stm32h7xx_hal_hsem.c **** @verbatim
 133:Drivers/STM32H7xx_HAL_Driver/Src/stm32h7xx_hal_hsem.c ****  ==============================================================================
 134:Drivers/STM32H7xx_HAL_Driver/Src/stm32h7xx_hal_hsem.c ****               ##### HSEM Take and Release functions #####
 135:Drivers/STM32H7xx_HAL_Driver/Src/stm32h7xx_hal_hsem.c ****  ==============================================================================
 136:Drivers/STM32H7xx_HAL_Driver/Src/stm32h7xx_hal_hsem.c **** [..] This section provides functions allowing to:
 137:Drivers/STM32H7xx_HAL_Driver/Src/stm32h7xx_hal_hsem.c ****       (+) Take a semaphore with 2 Step method 
 138:Drivers/STM32H7xx_HAL_Driver/Src/stm32h7xx_hal_hsem.c ****       (+) Fast Take a semaphore with 1 Step method
 139:Drivers/STM32H7xx_HAL_Driver/Src/stm32h7xx_hal_hsem.c ****       (+) Check semaphore state Taken or not  
 140:Drivers/STM32H7xx_HAL_Driver/Src/stm32h7xx_hal_hsem.c ****       (+) Release a semaphore
 141:Drivers/STM32H7xx_HAL_Driver/Src/stm32h7xx_hal_hsem.c ****       (+) Release all semaphore at once
 142:Drivers/STM32H7xx_HAL_Driver/Src/stm32h7xx_hal_hsem.c **** 
 143:Drivers/STM32H7xx_HAL_Driver/Src/stm32h7xx_hal_hsem.c **** @endverbatim
 144:Drivers/STM32H7xx_HAL_Driver/Src/stm32h7xx_hal_hsem.c ****   * @{
ARM GAS  /tmp/ccgxYAWl.s 			page 4


 145:Drivers/STM32H7xx_HAL_Driver/Src/stm32h7xx_hal_hsem.c ****   */
 146:Drivers/STM32H7xx_HAL_Driver/Src/stm32h7xx_hal_hsem.c **** 
 147:Drivers/STM32H7xx_HAL_Driver/Src/stm32h7xx_hal_hsem.c **** 
 148:Drivers/STM32H7xx_HAL_Driver/Src/stm32h7xx_hal_hsem.c **** /**
 149:Drivers/STM32H7xx_HAL_Driver/Src/stm32h7xx_hal_hsem.c ****   * @brief  Take a semaphore in 2 Step mode. 
 150:Drivers/STM32H7xx_HAL_Driver/Src/stm32h7xx_hal_hsem.c ****   * @param  SemID: semaphore ID from 0 to 31  
 151:Drivers/STM32H7xx_HAL_Driver/Src/stm32h7xx_hal_hsem.c ****   * @param  ProcessID: Process ID from 0 to 255 
 152:Drivers/STM32H7xx_HAL_Driver/Src/stm32h7xx_hal_hsem.c ****   * @retval HAL status
 153:Drivers/STM32H7xx_HAL_Driver/Src/stm32h7xx_hal_hsem.c **** */
 154:Drivers/STM32H7xx_HAL_Driver/Src/stm32h7xx_hal_hsem.c **** HAL_StatusTypeDef  HAL_HSEM_Take(uint32_t SemID, uint32_t ProcessID)
 155:Drivers/STM32H7xx_HAL_Driver/Src/stm32h7xx_hal_hsem.c **** {          
  29              		.loc 1 155 1 view -0
  30              		.cfi_startproc
  31              		@ args = 0, pretend = 0, frame = 0
  32              		@ frame_needed = 0, uses_anonymous_args = 0
  33              		.loc 1 155 1 is_stmt 0 view .LVU1
  34 0000 70B5     		push	{r4, r5, r6, lr}
  35              	.LCFI0:
  36              		.cfi_def_cfa_offset 16
  37              		.cfi_offset 4, -16
  38              		.cfi_offset 5, -12
  39              		.cfi_offset 6, -8
  40              		.cfi_offset 14, -4
  41 0002 0646     		mov	r6, r0
 156:Drivers/STM32H7xx_HAL_Driver/Src/stm32h7xx_hal_hsem.c ****   /* Check the parameters */
 157:Drivers/STM32H7xx_HAL_Driver/Src/stm32h7xx_hal_hsem.c ****   assert_param(IS_HSEM_SEMID(SemID));
  42              		.loc 1 157 3 is_stmt 1 view .LVU2
 158:Drivers/STM32H7xx_HAL_Driver/Src/stm32h7xx_hal_hsem.c ****   assert_param(IS_HSEM_PROCESSID(ProcessID));
  43              		.loc 1 158 3 view .LVU3
 159:Drivers/STM32H7xx_HAL_Driver/Src/stm32h7xx_hal_hsem.c ****   
 160:Drivers/STM32H7xx_HAL_Driver/Src/stm32h7xx_hal_hsem.c ****   /* First step  write R register with MasterID, processID and take bit=1*/
 161:Drivers/STM32H7xx_HAL_Driver/Src/stm32h7xx_hal_hsem.c ****   HSEM->R[SemID] = ((ProcessID & HSEM_R_PROCID) | ((HAL_GetCurrentCPUID() << POSITION_VAL(HSEM_R_MA
  44              		.loc 1 161 3 view .LVU4
  45              		.loc 1 161 32 is_stmt 0 view .LVU5
  46 0004 CCB2     		uxtb	r4, r1
  47              		.loc 1 161 53 view .LVU6
  48 0006 FFF7FEFF 		bl	HAL_GetCurrentCPUID
  49              	.LVL1:
  50              	.LBB18:
  51              	.LBI18:
  52              		.file 2 "Drivers/CMSIS/Include/cmsis_gcc.h"
   1:Drivers/CMSIS/Include/cmsis_gcc.h **** /**************************************************************************//**
   2:Drivers/CMSIS/Include/cmsis_gcc.h ****  * @file     cmsis_gcc.h
   3:Drivers/CMSIS/Include/cmsis_gcc.h ****  * @brief    CMSIS compiler GCC header file
   4:Drivers/CMSIS/Include/cmsis_gcc.h ****  * @version  V5.0.1
   5:Drivers/CMSIS/Include/cmsis_gcc.h ****  * @date     02. February 2017
   6:Drivers/CMSIS/Include/cmsis_gcc.h ****  ******************************************************************************/
   7:Drivers/CMSIS/Include/cmsis_gcc.h **** /*
   8:Drivers/CMSIS/Include/cmsis_gcc.h ****  * Copyright (c) 2009-2017 ARM Limited. All rights reserved.
   9:Drivers/CMSIS/Include/cmsis_gcc.h ****  *
  10:Drivers/CMSIS/Include/cmsis_gcc.h ****  * SPDX-License-Identifier: Apache-2.0
  11:Drivers/CMSIS/Include/cmsis_gcc.h ****  *
  12:Drivers/CMSIS/Include/cmsis_gcc.h ****  * Licensed under the Apache License, Version 2.0 (the License); you may
  13:Drivers/CMSIS/Include/cmsis_gcc.h ****  * not use this file except in compliance with the License.
  14:Drivers/CMSIS/Include/cmsis_gcc.h ****  * You may obtain a copy of the License at
  15:Drivers/CMSIS/Include/cmsis_gcc.h ****  *
  16:Drivers/CMSIS/Include/cmsis_gcc.h ****  * www.apache.org/licenses/LICENSE-2.0
ARM GAS  /tmp/ccgxYAWl.s 			page 5


  17:Drivers/CMSIS/Include/cmsis_gcc.h ****  *
  18:Drivers/CMSIS/Include/cmsis_gcc.h ****  * Unless required by applicable law or agreed to in writing, software
  19:Drivers/CMSIS/Include/cmsis_gcc.h ****  * distributed under the License is distributed on an AS IS BASIS, WITHOUT
  20:Drivers/CMSIS/Include/cmsis_gcc.h ****  * WARRANTIES OR CONDITIONS OF ANY KIND, either express or implied.
  21:Drivers/CMSIS/Include/cmsis_gcc.h ****  * See the License for the specific language governing permissions and
  22:Drivers/CMSIS/Include/cmsis_gcc.h ****  * limitations under the License.
  23:Drivers/CMSIS/Include/cmsis_gcc.h ****  */
  24:Drivers/CMSIS/Include/cmsis_gcc.h **** 
  25:Drivers/CMSIS/Include/cmsis_gcc.h **** #ifndef __CMSIS_GCC_H
  26:Drivers/CMSIS/Include/cmsis_gcc.h **** #define __CMSIS_GCC_H
  27:Drivers/CMSIS/Include/cmsis_gcc.h **** 
  28:Drivers/CMSIS/Include/cmsis_gcc.h **** /* ignore some GCC warnings */
  29:Drivers/CMSIS/Include/cmsis_gcc.h **** #pragma GCC diagnostic push
  30:Drivers/CMSIS/Include/cmsis_gcc.h **** #pragma GCC diagnostic ignored "-Wsign-conversion"
  31:Drivers/CMSIS/Include/cmsis_gcc.h **** #pragma GCC diagnostic ignored "-Wconversion"
  32:Drivers/CMSIS/Include/cmsis_gcc.h **** #pragma GCC diagnostic ignored "-Wunused-parameter"
  33:Drivers/CMSIS/Include/cmsis_gcc.h **** 
  34:Drivers/CMSIS/Include/cmsis_gcc.h **** /* CMSIS compiler specific defines */
  35:Drivers/CMSIS/Include/cmsis_gcc.h **** #ifndef   __ASM
  36:Drivers/CMSIS/Include/cmsis_gcc.h ****   #define __ASM                     __asm
  37:Drivers/CMSIS/Include/cmsis_gcc.h **** #endif
  38:Drivers/CMSIS/Include/cmsis_gcc.h **** #ifndef   __INLINE
  39:Drivers/CMSIS/Include/cmsis_gcc.h ****   #define __INLINE                  inline
  40:Drivers/CMSIS/Include/cmsis_gcc.h **** #endif
  41:Drivers/CMSIS/Include/cmsis_gcc.h **** #ifndef   __STATIC_INLINE
  42:Drivers/CMSIS/Include/cmsis_gcc.h ****   #define __STATIC_INLINE           static inline
  43:Drivers/CMSIS/Include/cmsis_gcc.h **** #endif
  44:Drivers/CMSIS/Include/cmsis_gcc.h **** #ifndef   __NO_RETURN
  45:Drivers/CMSIS/Include/cmsis_gcc.h ****   #define __NO_RETURN               __attribute__((noreturn))
  46:Drivers/CMSIS/Include/cmsis_gcc.h **** #endif
  47:Drivers/CMSIS/Include/cmsis_gcc.h **** #ifndef   __USED
  48:Drivers/CMSIS/Include/cmsis_gcc.h ****   #define __USED                    __attribute__((used))
  49:Drivers/CMSIS/Include/cmsis_gcc.h **** #endif
  50:Drivers/CMSIS/Include/cmsis_gcc.h **** #ifndef   __WEAK
  51:Drivers/CMSIS/Include/cmsis_gcc.h ****   #define __WEAK                    __attribute__((weak))
  52:Drivers/CMSIS/Include/cmsis_gcc.h **** #endif
  53:Drivers/CMSIS/Include/cmsis_gcc.h **** #ifndef   __UNALIGNED_UINT32
  54:Drivers/CMSIS/Include/cmsis_gcc.h **** #pragma GCC diagnostic push
  55:Drivers/CMSIS/Include/cmsis_gcc.h **** #pragma GCC diagnostic ignored "-Wpacked"
  56:Drivers/CMSIS/Include/cmsis_gcc.h **** #pragma GCC diagnostic ignored "-Wattributes"
  57:Drivers/CMSIS/Include/cmsis_gcc.h ****   struct __attribute__((packed)) T_UINT32 { uint32_t v; };
  58:Drivers/CMSIS/Include/cmsis_gcc.h **** #pragma GCC diagnostic pop
  59:Drivers/CMSIS/Include/cmsis_gcc.h ****   #define __UNALIGNED_UINT32(x)     (((struct T_UINT32 *)(x))->v)
  60:Drivers/CMSIS/Include/cmsis_gcc.h **** #endif
  61:Drivers/CMSIS/Include/cmsis_gcc.h **** #ifndef   __ALIGNED
  62:Drivers/CMSIS/Include/cmsis_gcc.h ****   #define __ALIGNED(x)              __attribute__((aligned(x)))
  63:Drivers/CMSIS/Include/cmsis_gcc.h **** #endif
  64:Drivers/CMSIS/Include/cmsis_gcc.h **** #ifndef   __PACKED
  65:Drivers/CMSIS/Include/cmsis_gcc.h ****   #define __PACKED                  __attribute__((packed, aligned(1)))
  66:Drivers/CMSIS/Include/cmsis_gcc.h **** #endif
  67:Drivers/CMSIS/Include/cmsis_gcc.h **** #ifndef   __PACKED_STRUCT
  68:Drivers/CMSIS/Include/cmsis_gcc.h ****   #define __PACKED_STRUCT           struct __attribute__((packed, aligned(1)))
  69:Drivers/CMSIS/Include/cmsis_gcc.h **** #endif
  70:Drivers/CMSIS/Include/cmsis_gcc.h **** 
  71:Drivers/CMSIS/Include/cmsis_gcc.h **** 
  72:Drivers/CMSIS/Include/cmsis_gcc.h **** /* ###########################  Core Function Access  ########################### */
  73:Drivers/CMSIS/Include/cmsis_gcc.h **** /** \ingroup  CMSIS_Core_FunctionInterface
ARM GAS  /tmp/ccgxYAWl.s 			page 6


  74:Drivers/CMSIS/Include/cmsis_gcc.h ****     \defgroup CMSIS_Core_RegAccFunctions CMSIS Core Register Access Functions
  75:Drivers/CMSIS/Include/cmsis_gcc.h ****   @{
  76:Drivers/CMSIS/Include/cmsis_gcc.h ****  */
  77:Drivers/CMSIS/Include/cmsis_gcc.h **** 
  78:Drivers/CMSIS/Include/cmsis_gcc.h **** /**
  79:Drivers/CMSIS/Include/cmsis_gcc.h ****   \brief   Enable IRQ Interrupts
  80:Drivers/CMSIS/Include/cmsis_gcc.h ****   \details Enables IRQ interrupts by clearing the I-bit in the CPSR.
  81:Drivers/CMSIS/Include/cmsis_gcc.h ****            Can only be executed in Privileged modes.
  82:Drivers/CMSIS/Include/cmsis_gcc.h ****  */
  83:Drivers/CMSIS/Include/cmsis_gcc.h **** __attribute__((always_inline)) __STATIC_INLINE void __enable_irq(void)
  84:Drivers/CMSIS/Include/cmsis_gcc.h **** {
  85:Drivers/CMSIS/Include/cmsis_gcc.h ****   __ASM volatile ("cpsie i" : : : "memory");
  86:Drivers/CMSIS/Include/cmsis_gcc.h **** }
  87:Drivers/CMSIS/Include/cmsis_gcc.h **** 
  88:Drivers/CMSIS/Include/cmsis_gcc.h **** 
  89:Drivers/CMSIS/Include/cmsis_gcc.h **** /**
  90:Drivers/CMSIS/Include/cmsis_gcc.h ****   \brief   Disable IRQ Interrupts
  91:Drivers/CMSIS/Include/cmsis_gcc.h ****   \details Disables IRQ interrupts by setting the I-bit in the CPSR.
  92:Drivers/CMSIS/Include/cmsis_gcc.h ****            Can only be executed in Privileged modes.
  93:Drivers/CMSIS/Include/cmsis_gcc.h ****  */
  94:Drivers/CMSIS/Include/cmsis_gcc.h **** __attribute__((always_inline)) __STATIC_INLINE void __disable_irq(void)
  95:Drivers/CMSIS/Include/cmsis_gcc.h **** {
  96:Drivers/CMSIS/Include/cmsis_gcc.h ****   __ASM volatile ("cpsid i" : : : "memory");
  97:Drivers/CMSIS/Include/cmsis_gcc.h **** }
  98:Drivers/CMSIS/Include/cmsis_gcc.h **** 
  99:Drivers/CMSIS/Include/cmsis_gcc.h **** 
 100:Drivers/CMSIS/Include/cmsis_gcc.h **** /**
 101:Drivers/CMSIS/Include/cmsis_gcc.h ****   \brief   Get Control Register
 102:Drivers/CMSIS/Include/cmsis_gcc.h ****   \details Returns the content of the Control Register.
 103:Drivers/CMSIS/Include/cmsis_gcc.h ****   \return               Control Register value
 104:Drivers/CMSIS/Include/cmsis_gcc.h ****  */
 105:Drivers/CMSIS/Include/cmsis_gcc.h **** __attribute__((always_inline)) __STATIC_INLINE uint32_t __get_CONTROL(void)
 106:Drivers/CMSIS/Include/cmsis_gcc.h **** {
 107:Drivers/CMSIS/Include/cmsis_gcc.h ****   uint32_t result;
 108:Drivers/CMSIS/Include/cmsis_gcc.h **** 
 109:Drivers/CMSIS/Include/cmsis_gcc.h ****   __ASM volatile ("MRS %0, control" : "=r" (result) );
 110:Drivers/CMSIS/Include/cmsis_gcc.h ****   return(result);
 111:Drivers/CMSIS/Include/cmsis_gcc.h **** }
 112:Drivers/CMSIS/Include/cmsis_gcc.h **** 
 113:Drivers/CMSIS/Include/cmsis_gcc.h **** 
 114:Drivers/CMSIS/Include/cmsis_gcc.h **** #if (defined (__ARM_FEATURE_CMSE ) && (__ARM_FEATURE_CMSE == 3))
 115:Drivers/CMSIS/Include/cmsis_gcc.h **** /**
 116:Drivers/CMSIS/Include/cmsis_gcc.h ****   \brief   Get Control Register (non-secure)
 117:Drivers/CMSIS/Include/cmsis_gcc.h ****   \details Returns the content of the non-secure Control Register when in secure mode.
 118:Drivers/CMSIS/Include/cmsis_gcc.h ****   \return               non-secure Control Register value
 119:Drivers/CMSIS/Include/cmsis_gcc.h ****  */
 120:Drivers/CMSIS/Include/cmsis_gcc.h **** __attribute__((always_inline)) __STATIC_INLINE uint32_t __TZ_get_CONTROL_NS(void)
 121:Drivers/CMSIS/Include/cmsis_gcc.h **** {
 122:Drivers/CMSIS/Include/cmsis_gcc.h ****   uint32_t result;
 123:Drivers/CMSIS/Include/cmsis_gcc.h **** 
 124:Drivers/CMSIS/Include/cmsis_gcc.h ****   __ASM volatile ("MRS %0, control_ns" : "=r" (result) );
 125:Drivers/CMSIS/Include/cmsis_gcc.h ****   return(result);
 126:Drivers/CMSIS/Include/cmsis_gcc.h **** }
 127:Drivers/CMSIS/Include/cmsis_gcc.h **** #endif
 128:Drivers/CMSIS/Include/cmsis_gcc.h **** 
 129:Drivers/CMSIS/Include/cmsis_gcc.h **** 
 130:Drivers/CMSIS/Include/cmsis_gcc.h **** /**
ARM GAS  /tmp/ccgxYAWl.s 			page 7


 131:Drivers/CMSIS/Include/cmsis_gcc.h ****   \brief   Set Control Register
 132:Drivers/CMSIS/Include/cmsis_gcc.h ****   \details Writes the given value to the Control Register.
 133:Drivers/CMSIS/Include/cmsis_gcc.h ****   \param [in]    control  Control Register value to set
 134:Drivers/CMSIS/Include/cmsis_gcc.h ****  */
 135:Drivers/CMSIS/Include/cmsis_gcc.h **** __attribute__((always_inline)) __STATIC_INLINE void __set_CONTROL(uint32_t control)
 136:Drivers/CMSIS/Include/cmsis_gcc.h **** {
 137:Drivers/CMSIS/Include/cmsis_gcc.h ****   __ASM volatile ("MSR control, %0" : : "r" (control) : "memory");
 138:Drivers/CMSIS/Include/cmsis_gcc.h **** }
 139:Drivers/CMSIS/Include/cmsis_gcc.h **** 
 140:Drivers/CMSIS/Include/cmsis_gcc.h **** 
 141:Drivers/CMSIS/Include/cmsis_gcc.h **** #if (defined (__ARM_FEATURE_CMSE ) && (__ARM_FEATURE_CMSE == 3))
 142:Drivers/CMSIS/Include/cmsis_gcc.h **** /**
 143:Drivers/CMSIS/Include/cmsis_gcc.h ****   \brief   Set Control Register (non-secure)
 144:Drivers/CMSIS/Include/cmsis_gcc.h ****   \details Writes the given value to the non-secure Control Register when in secure state.
 145:Drivers/CMSIS/Include/cmsis_gcc.h ****   \param [in]    control  Control Register value to set
 146:Drivers/CMSIS/Include/cmsis_gcc.h ****  */
 147:Drivers/CMSIS/Include/cmsis_gcc.h **** __attribute__((always_inline)) __STATIC_INLINE void __TZ_set_CONTROL_NS(uint32_t control)
 148:Drivers/CMSIS/Include/cmsis_gcc.h **** {
 149:Drivers/CMSIS/Include/cmsis_gcc.h ****   __ASM volatile ("MSR control_ns, %0" : : "r" (control) : "memory");
 150:Drivers/CMSIS/Include/cmsis_gcc.h **** }
 151:Drivers/CMSIS/Include/cmsis_gcc.h **** #endif
 152:Drivers/CMSIS/Include/cmsis_gcc.h **** 
 153:Drivers/CMSIS/Include/cmsis_gcc.h **** 
 154:Drivers/CMSIS/Include/cmsis_gcc.h **** /**
 155:Drivers/CMSIS/Include/cmsis_gcc.h ****   \brief   Get IPSR Register
 156:Drivers/CMSIS/Include/cmsis_gcc.h ****   \details Returns the content of the IPSR Register.
 157:Drivers/CMSIS/Include/cmsis_gcc.h ****   \return               IPSR Register value
 158:Drivers/CMSIS/Include/cmsis_gcc.h ****  */
 159:Drivers/CMSIS/Include/cmsis_gcc.h **** __attribute__((always_inline)) __STATIC_INLINE uint32_t __get_IPSR(void)
 160:Drivers/CMSIS/Include/cmsis_gcc.h **** {
 161:Drivers/CMSIS/Include/cmsis_gcc.h ****   uint32_t result;
 162:Drivers/CMSIS/Include/cmsis_gcc.h **** 
 163:Drivers/CMSIS/Include/cmsis_gcc.h ****   __ASM volatile ("MRS %0, ipsr" : "=r" (result) );
 164:Drivers/CMSIS/Include/cmsis_gcc.h ****   return(result);
 165:Drivers/CMSIS/Include/cmsis_gcc.h **** }
 166:Drivers/CMSIS/Include/cmsis_gcc.h **** 
 167:Drivers/CMSIS/Include/cmsis_gcc.h **** 
 168:Drivers/CMSIS/Include/cmsis_gcc.h **** /**
 169:Drivers/CMSIS/Include/cmsis_gcc.h ****   \brief   Get APSR Register
 170:Drivers/CMSIS/Include/cmsis_gcc.h ****   \details Returns the content of the APSR Register.
 171:Drivers/CMSIS/Include/cmsis_gcc.h ****   \return               APSR Register value
 172:Drivers/CMSIS/Include/cmsis_gcc.h ****  */
 173:Drivers/CMSIS/Include/cmsis_gcc.h **** __attribute__((always_inline)) __STATIC_INLINE uint32_t __get_APSR(void)
 174:Drivers/CMSIS/Include/cmsis_gcc.h **** {
 175:Drivers/CMSIS/Include/cmsis_gcc.h ****   uint32_t result;
 176:Drivers/CMSIS/Include/cmsis_gcc.h **** 
 177:Drivers/CMSIS/Include/cmsis_gcc.h ****   __ASM volatile ("MRS %0, apsr" : "=r" (result) );
 178:Drivers/CMSIS/Include/cmsis_gcc.h ****   return(result);
 179:Drivers/CMSIS/Include/cmsis_gcc.h **** }
 180:Drivers/CMSIS/Include/cmsis_gcc.h **** 
 181:Drivers/CMSIS/Include/cmsis_gcc.h **** 
 182:Drivers/CMSIS/Include/cmsis_gcc.h **** /**
 183:Drivers/CMSIS/Include/cmsis_gcc.h ****   \brief   Get xPSR Register
 184:Drivers/CMSIS/Include/cmsis_gcc.h ****   \details Returns the content of the xPSR Register.
 185:Drivers/CMSIS/Include/cmsis_gcc.h ****   \return               xPSR Register value
 186:Drivers/CMSIS/Include/cmsis_gcc.h ****  */
 187:Drivers/CMSIS/Include/cmsis_gcc.h **** __attribute__((always_inline)) __STATIC_INLINE uint32_t __get_xPSR(void)
ARM GAS  /tmp/ccgxYAWl.s 			page 8


 188:Drivers/CMSIS/Include/cmsis_gcc.h **** {
 189:Drivers/CMSIS/Include/cmsis_gcc.h ****   uint32_t result;
 190:Drivers/CMSIS/Include/cmsis_gcc.h **** 
 191:Drivers/CMSIS/Include/cmsis_gcc.h ****   __ASM volatile ("MRS %0, xpsr" : "=r" (result) );
 192:Drivers/CMSIS/Include/cmsis_gcc.h ****   return(result);
 193:Drivers/CMSIS/Include/cmsis_gcc.h **** }
 194:Drivers/CMSIS/Include/cmsis_gcc.h **** 
 195:Drivers/CMSIS/Include/cmsis_gcc.h **** 
 196:Drivers/CMSIS/Include/cmsis_gcc.h **** /**
 197:Drivers/CMSIS/Include/cmsis_gcc.h ****   \brief   Get Process Stack Pointer
 198:Drivers/CMSIS/Include/cmsis_gcc.h ****   \details Returns the current value of the Process Stack Pointer (PSP).
 199:Drivers/CMSIS/Include/cmsis_gcc.h ****   \return               PSP Register value
 200:Drivers/CMSIS/Include/cmsis_gcc.h ****  */
 201:Drivers/CMSIS/Include/cmsis_gcc.h **** __attribute__((always_inline)) __STATIC_INLINE uint32_t __get_PSP(void)
 202:Drivers/CMSIS/Include/cmsis_gcc.h **** {
 203:Drivers/CMSIS/Include/cmsis_gcc.h ****   register uint32_t result;
 204:Drivers/CMSIS/Include/cmsis_gcc.h **** 
 205:Drivers/CMSIS/Include/cmsis_gcc.h ****   __ASM volatile ("MRS %0, psp"  : "=r" (result) );
 206:Drivers/CMSIS/Include/cmsis_gcc.h ****   return(result);
 207:Drivers/CMSIS/Include/cmsis_gcc.h **** }
 208:Drivers/CMSIS/Include/cmsis_gcc.h **** 
 209:Drivers/CMSIS/Include/cmsis_gcc.h **** 
 210:Drivers/CMSIS/Include/cmsis_gcc.h **** #if (defined (__ARM_FEATURE_CMSE ) && (__ARM_FEATURE_CMSE == 3))
 211:Drivers/CMSIS/Include/cmsis_gcc.h **** /**
 212:Drivers/CMSIS/Include/cmsis_gcc.h ****   \brief   Get Process Stack Pointer (non-secure)
 213:Drivers/CMSIS/Include/cmsis_gcc.h ****   \details Returns the current value of the non-secure Process Stack Pointer (PSP) when in secure s
 214:Drivers/CMSIS/Include/cmsis_gcc.h ****   \return               PSP Register value
 215:Drivers/CMSIS/Include/cmsis_gcc.h ****  */
 216:Drivers/CMSIS/Include/cmsis_gcc.h **** __attribute__((always_inline)) __STATIC_INLINE uint32_t __TZ_get_PSP_NS(void)
 217:Drivers/CMSIS/Include/cmsis_gcc.h **** {
 218:Drivers/CMSIS/Include/cmsis_gcc.h ****   register uint32_t result;
 219:Drivers/CMSIS/Include/cmsis_gcc.h **** 
 220:Drivers/CMSIS/Include/cmsis_gcc.h ****   __ASM volatile ("MRS %0, psp_ns"  : "=r" (result) );
 221:Drivers/CMSIS/Include/cmsis_gcc.h ****   return(result);
 222:Drivers/CMSIS/Include/cmsis_gcc.h **** }
 223:Drivers/CMSIS/Include/cmsis_gcc.h **** #endif
 224:Drivers/CMSIS/Include/cmsis_gcc.h **** 
 225:Drivers/CMSIS/Include/cmsis_gcc.h **** 
 226:Drivers/CMSIS/Include/cmsis_gcc.h **** /**
 227:Drivers/CMSIS/Include/cmsis_gcc.h ****   \brief   Set Process Stack Pointer
 228:Drivers/CMSIS/Include/cmsis_gcc.h ****   \details Assigns the given value to the Process Stack Pointer (PSP).
 229:Drivers/CMSIS/Include/cmsis_gcc.h ****   \param [in]    topOfProcStack  Process Stack Pointer value to set
 230:Drivers/CMSIS/Include/cmsis_gcc.h ****  */
 231:Drivers/CMSIS/Include/cmsis_gcc.h **** __attribute__((always_inline)) __STATIC_INLINE void __set_PSP(uint32_t topOfProcStack)
 232:Drivers/CMSIS/Include/cmsis_gcc.h **** {
 233:Drivers/CMSIS/Include/cmsis_gcc.h ****   __ASM volatile ("MSR psp, %0" : : "r" (topOfProcStack) : );
 234:Drivers/CMSIS/Include/cmsis_gcc.h **** }
 235:Drivers/CMSIS/Include/cmsis_gcc.h **** 
 236:Drivers/CMSIS/Include/cmsis_gcc.h **** 
 237:Drivers/CMSIS/Include/cmsis_gcc.h **** #if (defined (__ARM_FEATURE_CMSE ) && (__ARM_FEATURE_CMSE == 3))
 238:Drivers/CMSIS/Include/cmsis_gcc.h **** /**
 239:Drivers/CMSIS/Include/cmsis_gcc.h ****   \brief   Set Process Stack Pointer (non-secure)
 240:Drivers/CMSIS/Include/cmsis_gcc.h ****   \details Assigns the given value to the non-secure Process Stack Pointer (PSP) when in secure sta
 241:Drivers/CMSIS/Include/cmsis_gcc.h ****   \param [in]    topOfProcStack  Process Stack Pointer value to set
 242:Drivers/CMSIS/Include/cmsis_gcc.h ****  */
 243:Drivers/CMSIS/Include/cmsis_gcc.h **** __attribute__((always_inline)) __STATIC_INLINE void __TZ_set_PSP_NS(uint32_t topOfProcStack)
 244:Drivers/CMSIS/Include/cmsis_gcc.h **** {
ARM GAS  /tmp/ccgxYAWl.s 			page 9


 245:Drivers/CMSIS/Include/cmsis_gcc.h ****   __ASM volatile ("MSR psp_ns, %0" : : "r" (topOfProcStack) : );
 246:Drivers/CMSIS/Include/cmsis_gcc.h **** }
 247:Drivers/CMSIS/Include/cmsis_gcc.h **** #endif
 248:Drivers/CMSIS/Include/cmsis_gcc.h **** 
 249:Drivers/CMSIS/Include/cmsis_gcc.h **** 
 250:Drivers/CMSIS/Include/cmsis_gcc.h **** /**
 251:Drivers/CMSIS/Include/cmsis_gcc.h ****   \brief   Get Main Stack Pointer
 252:Drivers/CMSIS/Include/cmsis_gcc.h ****   \details Returns the current value of the Main Stack Pointer (MSP).
 253:Drivers/CMSIS/Include/cmsis_gcc.h ****   \return               MSP Register value
 254:Drivers/CMSIS/Include/cmsis_gcc.h ****  */
 255:Drivers/CMSIS/Include/cmsis_gcc.h **** __attribute__((always_inline)) __STATIC_INLINE uint32_t __get_MSP(void)
 256:Drivers/CMSIS/Include/cmsis_gcc.h **** {
 257:Drivers/CMSIS/Include/cmsis_gcc.h ****   register uint32_t result;
 258:Drivers/CMSIS/Include/cmsis_gcc.h **** 
 259:Drivers/CMSIS/Include/cmsis_gcc.h ****   __ASM volatile ("MRS %0, msp" : "=r" (result) );
 260:Drivers/CMSIS/Include/cmsis_gcc.h ****   return(result);
 261:Drivers/CMSIS/Include/cmsis_gcc.h **** }
 262:Drivers/CMSIS/Include/cmsis_gcc.h **** 
 263:Drivers/CMSIS/Include/cmsis_gcc.h **** 
 264:Drivers/CMSIS/Include/cmsis_gcc.h **** #if (defined (__ARM_FEATURE_CMSE ) && (__ARM_FEATURE_CMSE == 3))
 265:Drivers/CMSIS/Include/cmsis_gcc.h **** /**
 266:Drivers/CMSIS/Include/cmsis_gcc.h ****   \brief   Get Main Stack Pointer (non-secure)
 267:Drivers/CMSIS/Include/cmsis_gcc.h ****   \details Returns the current value of the non-secure Main Stack Pointer (MSP) when in secure stat
 268:Drivers/CMSIS/Include/cmsis_gcc.h ****   \return               MSP Register value
 269:Drivers/CMSIS/Include/cmsis_gcc.h ****  */
 270:Drivers/CMSIS/Include/cmsis_gcc.h **** __attribute__((always_inline)) __STATIC_INLINE uint32_t __TZ_get_MSP_NS(void)
 271:Drivers/CMSIS/Include/cmsis_gcc.h **** {
 272:Drivers/CMSIS/Include/cmsis_gcc.h ****   register uint32_t result;
 273:Drivers/CMSIS/Include/cmsis_gcc.h **** 
 274:Drivers/CMSIS/Include/cmsis_gcc.h ****   __ASM volatile ("MRS %0, msp_ns" : "=r" (result) );
 275:Drivers/CMSIS/Include/cmsis_gcc.h ****   return(result);
 276:Drivers/CMSIS/Include/cmsis_gcc.h **** }
 277:Drivers/CMSIS/Include/cmsis_gcc.h **** #endif
 278:Drivers/CMSIS/Include/cmsis_gcc.h **** 
 279:Drivers/CMSIS/Include/cmsis_gcc.h **** 
 280:Drivers/CMSIS/Include/cmsis_gcc.h **** /**
 281:Drivers/CMSIS/Include/cmsis_gcc.h ****   \brief   Set Main Stack Pointer
 282:Drivers/CMSIS/Include/cmsis_gcc.h ****   \details Assigns the given value to the Main Stack Pointer (MSP).
 283:Drivers/CMSIS/Include/cmsis_gcc.h ****   \param [in]    topOfMainStack  Main Stack Pointer value to set
 284:Drivers/CMSIS/Include/cmsis_gcc.h ****  */
 285:Drivers/CMSIS/Include/cmsis_gcc.h **** __attribute__((always_inline)) __STATIC_INLINE void __set_MSP(uint32_t topOfMainStack)
 286:Drivers/CMSIS/Include/cmsis_gcc.h **** {
 287:Drivers/CMSIS/Include/cmsis_gcc.h ****   __ASM volatile ("MSR msp, %0" : : "r" (topOfMainStack) : );
 288:Drivers/CMSIS/Include/cmsis_gcc.h **** }
 289:Drivers/CMSIS/Include/cmsis_gcc.h **** 
 290:Drivers/CMSIS/Include/cmsis_gcc.h **** 
 291:Drivers/CMSIS/Include/cmsis_gcc.h **** #if (defined (__ARM_FEATURE_CMSE ) && (__ARM_FEATURE_CMSE == 3))
 292:Drivers/CMSIS/Include/cmsis_gcc.h **** /**
 293:Drivers/CMSIS/Include/cmsis_gcc.h ****   \brief   Set Main Stack Pointer (non-secure)
 294:Drivers/CMSIS/Include/cmsis_gcc.h ****   \details Assigns the given value to the non-secure Main Stack Pointer (MSP) when in secure state.
 295:Drivers/CMSIS/Include/cmsis_gcc.h ****   \param [in]    topOfMainStack  Main Stack Pointer value to set
 296:Drivers/CMSIS/Include/cmsis_gcc.h ****  */
 297:Drivers/CMSIS/Include/cmsis_gcc.h **** __attribute__((always_inline)) __STATIC_INLINE void __TZ_set_MSP_NS(uint32_t topOfMainStack)
 298:Drivers/CMSIS/Include/cmsis_gcc.h **** {
 299:Drivers/CMSIS/Include/cmsis_gcc.h ****   __ASM volatile ("MSR msp_ns, %0" : : "r" (topOfMainStack) : );
 300:Drivers/CMSIS/Include/cmsis_gcc.h **** }
 301:Drivers/CMSIS/Include/cmsis_gcc.h **** #endif
ARM GAS  /tmp/ccgxYAWl.s 			page 10


 302:Drivers/CMSIS/Include/cmsis_gcc.h **** 
 303:Drivers/CMSIS/Include/cmsis_gcc.h **** 
 304:Drivers/CMSIS/Include/cmsis_gcc.h **** /**
 305:Drivers/CMSIS/Include/cmsis_gcc.h ****   \brief   Get Priority Mask
 306:Drivers/CMSIS/Include/cmsis_gcc.h ****   \details Returns the current state of the priority mask bit from the Priority Mask Register.
 307:Drivers/CMSIS/Include/cmsis_gcc.h ****   \return               Priority Mask value
 308:Drivers/CMSIS/Include/cmsis_gcc.h ****  */
 309:Drivers/CMSIS/Include/cmsis_gcc.h **** __attribute__((always_inline)) __STATIC_INLINE uint32_t __get_PRIMASK(void)
 310:Drivers/CMSIS/Include/cmsis_gcc.h **** {
 311:Drivers/CMSIS/Include/cmsis_gcc.h ****   uint32_t result;
 312:Drivers/CMSIS/Include/cmsis_gcc.h **** 
 313:Drivers/CMSIS/Include/cmsis_gcc.h ****   __ASM volatile ("MRS %0, primask" : "=r" (result) );
 314:Drivers/CMSIS/Include/cmsis_gcc.h ****   return(result);
 315:Drivers/CMSIS/Include/cmsis_gcc.h **** }
 316:Drivers/CMSIS/Include/cmsis_gcc.h **** 
 317:Drivers/CMSIS/Include/cmsis_gcc.h **** 
 318:Drivers/CMSIS/Include/cmsis_gcc.h **** #if (defined (__ARM_FEATURE_CMSE ) && (__ARM_FEATURE_CMSE == 3))
 319:Drivers/CMSIS/Include/cmsis_gcc.h **** /**
 320:Drivers/CMSIS/Include/cmsis_gcc.h ****   \brief   Get Priority Mask (non-secure)
 321:Drivers/CMSIS/Include/cmsis_gcc.h ****   \details Returns the current state of the non-secure priority mask bit from the Priority Mask Reg
 322:Drivers/CMSIS/Include/cmsis_gcc.h ****   \return               Priority Mask value
 323:Drivers/CMSIS/Include/cmsis_gcc.h ****  */
 324:Drivers/CMSIS/Include/cmsis_gcc.h **** __attribute__((always_inline)) __STATIC_INLINE uint32_t __TZ_get_PRIMASK_NS(void)
 325:Drivers/CMSIS/Include/cmsis_gcc.h **** {
 326:Drivers/CMSIS/Include/cmsis_gcc.h ****   uint32_t result;
 327:Drivers/CMSIS/Include/cmsis_gcc.h **** 
 328:Drivers/CMSIS/Include/cmsis_gcc.h ****   __ASM volatile ("MRS %0, primask_ns" : "=r" (result) );
 329:Drivers/CMSIS/Include/cmsis_gcc.h ****   return(result);
 330:Drivers/CMSIS/Include/cmsis_gcc.h **** }
 331:Drivers/CMSIS/Include/cmsis_gcc.h **** #endif
 332:Drivers/CMSIS/Include/cmsis_gcc.h **** 
 333:Drivers/CMSIS/Include/cmsis_gcc.h **** 
 334:Drivers/CMSIS/Include/cmsis_gcc.h **** /**
 335:Drivers/CMSIS/Include/cmsis_gcc.h ****   \brief   Set Priority Mask
 336:Drivers/CMSIS/Include/cmsis_gcc.h ****   \details Assigns the given value to the Priority Mask Register.
 337:Drivers/CMSIS/Include/cmsis_gcc.h ****   \param [in]    priMask  Priority Mask
 338:Drivers/CMSIS/Include/cmsis_gcc.h ****  */
 339:Drivers/CMSIS/Include/cmsis_gcc.h **** __attribute__((always_inline)) __STATIC_INLINE void __set_PRIMASK(uint32_t priMask)
 340:Drivers/CMSIS/Include/cmsis_gcc.h **** {
 341:Drivers/CMSIS/Include/cmsis_gcc.h ****   __ASM volatile ("MSR primask, %0" : : "r" (priMask) : "memory");
 342:Drivers/CMSIS/Include/cmsis_gcc.h **** }
 343:Drivers/CMSIS/Include/cmsis_gcc.h **** 
 344:Drivers/CMSIS/Include/cmsis_gcc.h **** 
 345:Drivers/CMSIS/Include/cmsis_gcc.h **** #if (defined (__ARM_FEATURE_CMSE ) && (__ARM_FEATURE_CMSE == 3))
 346:Drivers/CMSIS/Include/cmsis_gcc.h **** /**
 347:Drivers/CMSIS/Include/cmsis_gcc.h ****   \brief   Set Priority Mask (non-secure)
 348:Drivers/CMSIS/Include/cmsis_gcc.h ****   \details Assigns the given value to the non-secure Priority Mask Register when in secure state.
 349:Drivers/CMSIS/Include/cmsis_gcc.h ****   \param [in]    priMask  Priority Mask
 350:Drivers/CMSIS/Include/cmsis_gcc.h ****  */
 351:Drivers/CMSIS/Include/cmsis_gcc.h **** __attribute__((always_inline)) __STATIC_INLINE void __TZ_set_PRIMASK_NS(uint32_t priMask)
 352:Drivers/CMSIS/Include/cmsis_gcc.h **** {
 353:Drivers/CMSIS/Include/cmsis_gcc.h ****   __ASM volatile ("MSR primask_ns, %0" : : "r" (priMask) : "memory");
 354:Drivers/CMSIS/Include/cmsis_gcc.h **** }
 355:Drivers/CMSIS/Include/cmsis_gcc.h **** #endif
 356:Drivers/CMSIS/Include/cmsis_gcc.h **** 
 357:Drivers/CMSIS/Include/cmsis_gcc.h **** 
 358:Drivers/CMSIS/Include/cmsis_gcc.h **** #if ((defined (__ARM_ARCH_7M__      ) && (__ARM_ARCH_7M__      == 1)) || \
ARM GAS  /tmp/ccgxYAWl.s 			page 11


 359:Drivers/CMSIS/Include/cmsis_gcc.h ****      (defined (__ARM_ARCH_7EM__     ) && (__ARM_ARCH_7EM__     == 1)) || \
 360:Drivers/CMSIS/Include/cmsis_gcc.h ****      (defined (__ARM_ARCH_8M_MAIN__ ) && (__ARM_ARCH_8M_MAIN__ == 1))    )
 361:Drivers/CMSIS/Include/cmsis_gcc.h **** /**
 362:Drivers/CMSIS/Include/cmsis_gcc.h ****   \brief   Enable FIQ
 363:Drivers/CMSIS/Include/cmsis_gcc.h ****   \details Enables FIQ interrupts by clearing the F-bit in the CPSR.
 364:Drivers/CMSIS/Include/cmsis_gcc.h ****            Can only be executed in Privileged modes.
 365:Drivers/CMSIS/Include/cmsis_gcc.h ****  */
 366:Drivers/CMSIS/Include/cmsis_gcc.h **** __attribute__((always_inline)) __STATIC_INLINE void __enable_fault_irq(void)
 367:Drivers/CMSIS/Include/cmsis_gcc.h **** {
 368:Drivers/CMSIS/Include/cmsis_gcc.h ****   __ASM volatile ("cpsie f" : : : "memory");
 369:Drivers/CMSIS/Include/cmsis_gcc.h **** }
 370:Drivers/CMSIS/Include/cmsis_gcc.h **** 
 371:Drivers/CMSIS/Include/cmsis_gcc.h **** 
 372:Drivers/CMSIS/Include/cmsis_gcc.h **** /**
 373:Drivers/CMSIS/Include/cmsis_gcc.h ****   \brief   Disable FIQ
 374:Drivers/CMSIS/Include/cmsis_gcc.h ****   \details Disables FIQ interrupts by setting the F-bit in the CPSR.
 375:Drivers/CMSIS/Include/cmsis_gcc.h ****            Can only be executed in Privileged modes.
 376:Drivers/CMSIS/Include/cmsis_gcc.h ****  */
 377:Drivers/CMSIS/Include/cmsis_gcc.h **** __attribute__((always_inline)) __STATIC_INLINE void __disable_fault_irq(void)
 378:Drivers/CMSIS/Include/cmsis_gcc.h **** {
 379:Drivers/CMSIS/Include/cmsis_gcc.h ****   __ASM volatile ("cpsid f" : : : "memory");
 380:Drivers/CMSIS/Include/cmsis_gcc.h **** }
 381:Drivers/CMSIS/Include/cmsis_gcc.h **** 
 382:Drivers/CMSIS/Include/cmsis_gcc.h **** 
 383:Drivers/CMSIS/Include/cmsis_gcc.h **** /**
 384:Drivers/CMSIS/Include/cmsis_gcc.h ****   \brief   Get Base Priority
 385:Drivers/CMSIS/Include/cmsis_gcc.h ****   \details Returns the current value of the Base Priority register.
 386:Drivers/CMSIS/Include/cmsis_gcc.h ****   \return               Base Priority register value
 387:Drivers/CMSIS/Include/cmsis_gcc.h ****  */
 388:Drivers/CMSIS/Include/cmsis_gcc.h **** __attribute__((always_inline)) __STATIC_INLINE uint32_t __get_BASEPRI(void)
 389:Drivers/CMSIS/Include/cmsis_gcc.h **** {
 390:Drivers/CMSIS/Include/cmsis_gcc.h ****   uint32_t result;
 391:Drivers/CMSIS/Include/cmsis_gcc.h **** 
 392:Drivers/CMSIS/Include/cmsis_gcc.h ****   __ASM volatile ("MRS %0, basepri" : "=r" (result) );
 393:Drivers/CMSIS/Include/cmsis_gcc.h ****   return(result);
 394:Drivers/CMSIS/Include/cmsis_gcc.h **** }
 395:Drivers/CMSIS/Include/cmsis_gcc.h **** 
 396:Drivers/CMSIS/Include/cmsis_gcc.h **** 
 397:Drivers/CMSIS/Include/cmsis_gcc.h **** #if (defined (__ARM_FEATURE_CMSE ) && (__ARM_FEATURE_CMSE == 3))
 398:Drivers/CMSIS/Include/cmsis_gcc.h **** /**
 399:Drivers/CMSIS/Include/cmsis_gcc.h ****   \brief   Get Base Priority (non-secure)
 400:Drivers/CMSIS/Include/cmsis_gcc.h ****   \details Returns the current value of the non-secure Base Priority register when in secure state.
 401:Drivers/CMSIS/Include/cmsis_gcc.h ****   \return               Base Priority register value
 402:Drivers/CMSIS/Include/cmsis_gcc.h ****  */
 403:Drivers/CMSIS/Include/cmsis_gcc.h **** __attribute__((always_inline)) __STATIC_INLINE uint32_t __TZ_get_BASEPRI_NS(void)
 404:Drivers/CMSIS/Include/cmsis_gcc.h **** {
 405:Drivers/CMSIS/Include/cmsis_gcc.h ****   uint32_t result;
 406:Drivers/CMSIS/Include/cmsis_gcc.h **** 
 407:Drivers/CMSIS/Include/cmsis_gcc.h ****   __ASM volatile ("MRS %0, basepri_ns" : "=r" (result) );
 408:Drivers/CMSIS/Include/cmsis_gcc.h ****   return(result);
 409:Drivers/CMSIS/Include/cmsis_gcc.h **** }
 410:Drivers/CMSIS/Include/cmsis_gcc.h **** #endif
 411:Drivers/CMSIS/Include/cmsis_gcc.h **** 
 412:Drivers/CMSIS/Include/cmsis_gcc.h **** 
 413:Drivers/CMSIS/Include/cmsis_gcc.h **** /**
 414:Drivers/CMSIS/Include/cmsis_gcc.h ****   \brief   Set Base Priority
 415:Drivers/CMSIS/Include/cmsis_gcc.h ****   \details Assigns the given value to the Base Priority register.
ARM GAS  /tmp/ccgxYAWl.s 			page 12


 416:Drivers/CMSIS/Include/cmsis_gcc.h ****   \param [in]    basePri  Base Priority value to set
 417:Drivers/CMSIS/Include/cmsis_gcc.h ****  */
 418:Drivers/CMSIS/Include/cmsis_gcc.h **** __attribute__((always_inline)) __STATIC_INLINE void __set_BASEPRI(uint32_t basePri)
 419:Drivers/CMSIS/Include/cmsis_gcc.h **** {
 420:Drivers/CMSIS/Include/cmsis_gcc.h ****   __ASM volatile ("MSR basepri, %0" : : "r" (basePri) : "memory");
 421:Drivers/CMSIS/Include/cmsis_gcc.h **** }
 422:Drivers/CMSIS/Include/cmsis_gcc.h **** 
 423:Drivers/CMSIS/Include/cmsis_gcc.h **** 
 424:Drivers/CMSIS/Include/cmsis_gcc.h **** #if (defined (__ARM_FEATURE_CMSE ) && (__ARM_FEATURE_CMSE == 3))
 425:Drivers/CMSIS/Include/cmsis_gcc.h **** /**
 426:Drivers/CMSIS/Include/cmsis_gcc.h ****   \brief   Set Base Priority (non-secure)
 427:Drivers/CMSIS/Include/cmsis_gcc.h ****   \details Assigns the given value to the non-secure Base Priority register when in secure state.
 428:Drivers/CMSIS/Include/cmsis_gcc.h ****   \param [in]    basePri  Base Priority value to set
 429:Drivers/CMSIS/Include/cmsis_gcc.h ****  */
 430:Drivers/CMSIS/Include/cmsis_gcc.h **** __attribute__((always_inline)) __STATIC_INLINE void __TZ_set_BASEPRI_NS(uint32_t basePri)
 431:Drivers/CMSIS/Include/cmsis_gcc.h **** {
 432:Drivers/CMSIS/Include/cmsis_gcc.h ****   __ASM volatile ("MSR basepri_ns, %0" : : "r" (basePri) : "memory");
 433:Drivers/CMSIS/Include/cmsis_gcc.h **** }
 434:Drivers/CMSIS/Include/cmsis_gcc.h **** #endif
 435:Drivers/CMSIS/Include/cmsis_gcc.h **** 
 436:Drivers/CMSIS/Include/cmsis_gcc.h **** 
 437:Drivers/CMSIS/Include/cmsis_gcc.h **** /**
 438:Drivers/CMSIS/Include/cmsis_gcc.h ****   \brief   Set Base Priority with condition
 439:Drivers/CMSIS/Include/cmsis_gcc.h ****   \details Assigns the given value to the Base Priority register only if BASEPRI masking is disable
 440:Drivers/CMSIS/Include/cmsis_gcc.h ****            or the new value increases the BASEPRI priority level.
 441:Drivers/CMSIS/Include/cmsis_gcc.h ****   \param [in]    basePri  Base Priority value to set
 442:Drivers/CMSIS/Include/cmsis_gcc.h ****  */
 443:Drivers/CMSIS/Include/cmsis_gcc.h **** __attribute__((always_inline)) __STATIC_INLINE void __set_BASEPRI_MAX(uint32_t basePri)
 444:Drivers/CMSIS/Include/cmsis_gcc.h **** {
 445:Drivers/CMSIS/Include/cmsis_gcc.h ****   __ASM volatile ("MSR basepri_max, %0" : : "r" (basePri) : "memory");
 446:Drivers/CMSIS/Include/cmsis_gcc.h **** }
 447:Drivers/CMSIS/Include/cmsis_gcc.h **** 
 448:Drivers/CMSIS/Include/cmsis_gcc.h **** 
 449:Drivers/CMSIS/Include/cmsis_gcc.h **** /**
 450:Drivers/CMSIS/Include/cmsis_gcc.h ****   \brief   Get Fault Mask
 451:Drivers/CMSIS/Include/cmsis_gcc.h ****   \details Returns the current value of the Fault Mask register.
 452:Drivers/CMSIS/Include/cmsis_gcc.h ****   \return               Fault Mask register value
 453:Drivers/CMSIS/Include/cmsis_gcc.h ****  */
 454:Drivers/CMSIS/Include/cmsis_gcc.h **** __attribute__((always_inline)) __STATIC_INLINE uint32_t __get_FAULTMASK(void)
 455:Drivers/CMSIS/Include/cmsis_gcc.h **** {
 456:Drivers/CMSIS/Include/cmsis_gcc.h ****   uint32_t result;
 457:Drivers/CMSIS/Include/cmsis_gcc.h **** 
 458:Drivers/CMSIS/Include/cmsis_gcc.h ****   __ASM volatile ("MRS %0, faultmask" : "=r" (result) );
 459:Drivers/CMSIS/Include/cmsis_gcc.h ****   return(result);
 460:Drivers/CMSIS/Include/cmsis_gcc.h **** }
 461:Drivers/CMSIS/Include/cmsis_gcc.h **** 
 462:Drivers/CMSIS/Include/cmsis_gcc.h **** 
 463:Drivers/CMSIS/Include/cmsis_gcc.h **** #if (defined (__ARM_FEATURE_CMSE ) && (__ARM_FEATURE_CMSE == 3))
 464:Drivers/CMSIS/Include/cmsis_gcc.h **** /**
 465:Drivers/CMSIS/Include/cmsis_gcc.h ****   \brief   Get Fault Mask (non-secure)
 466:Drivers/CMSIS/Include/cmsis_gcc.h ****   \details Returns the current value of the non-secure Fault Mask register when in secure state.
 467:Drivers/CMSIS/Include/cmsis_gcc.h ****   \return               Fault Mask register value
 468:Drivers/CMSIS/Include/cmsis_gcc.h ****  */
 469:Drivers/CMSIS/Include/cmsis_gcc.h **** __attribute__((always_inline)) __STATIC_INLINE uint32_t __TZ_get_FAULTMASK_NS(void)
 470:Drivers/CMSIS/Include/cmsis_gcc.h **** {
 471:Drivers/CMSIS/Include/cmsis_gcc.h ****   uint32_t result;
 472:Drivers/CMSIS/Include/cmsis_gcc.h **** 
ARM GAS  /tmp/ccgxYAWl.s 			page 13


 473:Drivers/CMSIS/Include/cmsis_gcc.h ****   __ASM volatile ("MRS %0, faultmask_ns" : "=r" (result) );
 474:Drivers/CMSIS/Include/cmsis_gcc.h ****   return(result);
 475:Drivers/CMSIS/Include/cmsis_gcc.h **** }
 476:Drivers/CMSIS/Include/cmsis_gcc.h **** #endif
 477:Drivers/CMSIS/Include/cmsis_gcc.h **** 
 478:Drivers/CMSIS/Include/cmsis_gcc.h **** 
 479:Drivers/CMSIS/Include/cmsis_gcc.h **** /**
 480:Drivers/CMSIS/Include/cmsis_gcc.h ****   \brief   Set Fault Mask
 481:Drivers/CMSIS/Include/cmsis_gcc.h ****   \details Assigns the given value to the Fault Mask register.
 482:Drivers/CMSIS/Include/cmsis_gcc.h ****   \param [in]    faultMask  Fault Mask value to set
 483:Drivers/CMSIS/Include/cmsis_gcc.h ****  */
 484:Drivers/CMSIS/Include/cmsis_gcc.h **** __attribute__((always_inline)) __STATIC_INLINE void __set_FAULTMASK(uint32_t faultMask)
 485:Drivers/CMSIS/Include/cmsis_gcc.h **** {
 486:Drivers/CMSIS/Include/cmsis_gcc.h ****   __ASM volatile ("MSR faultmask, %0" : : "r" (faultMask) : "memory");
 487:Drivers/CMSIS/Include/cmsis_gcc.h **** }
 488:Drivers/CMSIS/Include/cmsis_gcc.h **** 
 489:Drivers/CMSIS/Include/cmsis_gcc.h **** 
 490:Drivers/CMSIS/Include/cmsis_gcc.h **** #if (defined (__ARM_FEATURE_CMSE ) && (__ARM_FEATURE_CMSE == 3))
 491:Drivers/CMSIS/Include/cmsis_gcc.h **** /**
 492:Drivers/CMSIS/Include/cmsis_gcc.h ****   \brief   Set Fault Mask (non-secure)
 493:Drivers/CMSIS/Include/cmsis_gcc.h ****   \details Assigns the given value to the non-secure Fault Mask register when in secure state.
 494:Drivers/CMSIS/Include/cmsis_gcc.h ****   \param [in]    faultMask  Fault Mask value to set
 495:Drivers/CMSIS/Include/cmsis_gcc.h ****  */
 496:Drivers/CMSIS/Include/cmsis_gcc.h **** __attribute__((always_inline)) __STATIC_INLINE void __TZ_set_FAULTMASK_NS(uint32_t faultMask)
 497:Drivers/CMSIS/Include/cmsis_gcc.h **** {
 498:Drivers/CMSIS/Include/cmsis_gcc.h ****   __ASM volatile ("MSR faultmask_ns, %0" : : "r" (faultMask) : "memory");
 499:Drivers/CMSIS/Include/cmsis_gcc.h **** }
 500:Drivers/CMSIS/Include/cmsis_gcc.h **** #endif
 501:Drivers/CMSIS/Include/cmsis_gcc.h **** 
 502:Drivers/CMSIS/Include/cmsis_gcc.h **** #endif /* ((defined (__ARM_ARCH_7M__      ) && (__ARM_ARCH_7M__      == 1)) || \
 503:Drivers/CMSIS/Include/cmsis_gcc.h ****            (defined (__ARM_ARCH_7EM__     ) && (__ARM_ARCH_7EM__     == 1)) || \
 504:Drivers/CMSIS/Include/cmsis_gcc.h ****            (defined (__ARM_ARCH_8M_MAIN__ ) && (__ARM_ARCH_8M_MAIN__ == 1))    ) */
 505:Drivers/CMSIS/Include/cmsis_gcc.h **** 
 506:Drivers/CMSIS/Include/cmsis_gcc.h **** 
 507:Drivers/CMSIS/Include/cmsis_gcc.h **** #if ((defined (__ARM_ARCH_8M_MAIN__ ) && (__ARM_ARCH_8M_MAIN__ == 1)) || \
 508:Drivers/CMSIS/Include/cmsis_gcc.h ****      (defined (__ARM_ARCH_8M_BASE__ ) && (__ARM_ARCH_8M_BASE__ == 1))    )
 509:Drivers/CMSIS/Include/cmsis_gcc.h **** 
 510:Drivers/CMSIS/Include/cmsis_gcc.h **** /**
 511:Drivers/CMSIS/Include/cmsis_gcc.h ****   \brief   Get Process Stack Pointer Limit
 512:Drivers/CMSIS/Include/cmsis_gcc.h ****   \details Returns the current value of the Process Stack Pointer Limit (PSPLIM).
 513:Drivers/CMSIS/Include/cmsis_gcc.h ****   \return               PSPLIM Register value
 514:Drivers/CMSIS/Include/cmsis_gcc.h ****  */
 515:Drivers/CMSIS/Include/cmsis_gcc.h **** __attribute__((always_inline)) __STATIC_INLINE uint32_t __get_PSPLIM(void)
 516:Drivers/CMSIS/Include/cmsis_gcc.h **** {
 517:Drivers/CMSIS/Include/cmsis_gcc.h ****   register uint32_t result;
 518:Drivers/CMSIS/Include/cmsis_gcc.h **** 
 519:Drivers/CMSIS/Include/cmsis_gcc.h ****   __ASM volatile ("MRS %0, psplim"  : "=r" (result) );
 520:Drivers/CMSIS/Include/cmsis_gcc.h ****   return(result);
 521:Drivers/CMSIS/Include/cmsis_gcc.h **** }
 522:Drivers/CMSIS/Include/cmsis_gcc.h **** 
 523:Drivers/CMSIS/Include/cmsis_gcc.h **** 
 524:Drivers/CMSIS/Include/cmsis_gcc.h **** #if ((defined (__ARM_FEATURE_CMSE  ) && (__ARM_FEATURE_CMSE   == 3)) && \
 525:Drivers/CMSIS/Include/cmsis_gcc.h ****      (defined (__ARM_ARCH_8M_MAIN__) && (__ARM_ARCH_8M_MAIN__ == 1))    )
 526:Drivers/CMSIS/Include/cmsis_gcc.h **** /**
 527:Drivers/CMSIS/Include/cmsis_gcc.h ****   \brief   Get Process Stack Pointer Limit (non-secure)
 528:Drivers/CMSIS/Include/cmsis_gcc.h ****   \details Returns the current value of the non-secure Process Stack Pointer Limit (PSPLIM) when in
 529:Drivers/CMSIS/Include/cmsis_gcc.h ****   \return               PSPLIM Register value
ARM GAS  /tmp/ccgxYAWl.s 			page 14


 530:Drivers/CMSIS/Include/cmsis_gcc.h ****  */
 531:Drivers/CMSIS/Include/cmsis_gcc.h **** __attribute__((always_inline)) __STATIC_INLINE uint32_t __TZ_get_PSPLIM_NS(void)
 532:Drivers/CMSIS/Include/cmsis_gcc.h **** {
 533:Drivers/CMSIS/Include/cmsis_gcc.h ****   register uint32_t result;
 534:Drivers/CMSIS/Include/cmsis_gcc.h **** 
 535:Drivers/CMSIS/Include/cmsis_gcc.h ****   __ASM volatile ("MRS %0, psplim_ns"  : "=r" (result) );
 536:Drivers/CMSIS/Include/cmsis_gcc.h ****   return(result);
 537:Drivers/CMSIS/Include/cmsis_gcc.h **** }
 538:Drivers/CMSIS/Include/cmsis_gcc.h **** #endif
 539:Drivers/CMSIS/Include/cmsis_gcc.h **** 
 540:Drivers/CMSIS/Include/cmsis_gcc.h **** 
 541:Drivers/CMSIS/Include/cmsis_gcc.h **** /**
 542:Drivers/CMSIS/Include/cmsis_gcc.h ****   \brief   Set Process Stack Pointer Limit
 543:Drivers/CMSIS/Include/cmsis_gcc.h ****   \details Assigns the given value to the Process Stack Pointer Limit (PSPLIM).
 544:Drivers/CMSIS/Include/cmsis_gcc.h ****   \param [in]    ProcStackPtrLimit  Process Stack Pointer Limit value to set
 545:Drivers/CMSIS/Include/cmsis_gcc.h ****  */
 546:Drivers/CMSIS/Include/cmsis_gcc.h **** __attribute__((always_inline)) __STATIC_INLINE void __set_PSPLIM(uint32_t ProcStackPtrLimit)
 547:Drivers/CMSIS/Include/cmsis_gcc.h **** {
 548:Drivers/CMSIS/Include/cmsis_gcc.h ****   __ASM volatile ("MSR psplim, %0" : : "r" (ProcStackPtrLimit));
 549:Drivers/CMSIS/Include/cmsis_gcc.h **** }
 550:Drivers/CMSIS/Include/cmsis_gcc.h **** 
 551:Drivers/CMSIS/Include/cmsis_gcc.h **** 
 552:Drivers/CMSIS/Include/cmsis_gcc.h **** #if ((defined (__ARM_FEATURE_CMSE  ) && (__ARM_FEATURE_CMSE   == 3)) && \
 553:Drivers/CMSIS/Include/cmsis_gcc.h ****      (defined (__ARM_ARCH_8M_MAIN__) && (__ARM_ARCH_8M_MAIN__ == 1))    )
 554:Drivers/CMSIS/Include/cmsis_gcc.h **** /**
 555:Drivers/CMSIS/Include/cmsis_gcc.h ****   \brief   Set Process Stack Pointer (non-secure)
 556:Drivers/CMSIS/Include/cmsis_gcc.h ****   \details Assigns the given value to the non-secure Process Stack Pointer Limit (PSPLIM) when in s
 557:Drivers/CMSIS/Include/cmsis_gcc.h ****   \param [in]    ProcStackPtrLimit  Process Stack Pointer Limit value to set
 558:Drivers/CMSIS/Include/cmsis_gcc.h ****  */
 559:Drivers/CMSIS/Include/cmsis_gcc.h **** __attribute__((always_inline)) __STATIC_INLINE void __TZ_set_PSPLIM_NS(uint32_t ProcStackPtrLimit)
 560:Drivers/CMSIS/Include/cmsis_gcc.h **** {
 561:Drivers/CMSIS/Include/cmsis_gcc.h ****   __ASM volatile ("MSR psplim_ns, %0\n" : : "r" (ProcStackPtrLimit));
 562:Drivers/CMSIS/Include/cmsis_gcc.h **** }
 563:Drivers/CMSIS/Include/cmsis_gcc.h **** #endif
 564:Drivers/CMSIS/Include/cmsis_gcc.h **** 
 565:Drivers/CMSIS/Include/cmsis_gcc.h **** 
 566:Drivers/CMSIS/Include/cmsis_gcc.h **** /**
 567:Drivers/CMSIS/Include/cmsis_gcc.h ****   \brief   Get Main Stack Pointer Limit
 568:Drivers/CMSIS/Include/cmsis_gcc.h ****   \details Returns the current value of the Main Stack Pointer Limit (MSPLIM).
 569:Drivers/CMSIS/Include/cmsis_gcc.h ****   \return               MSPLIM Register value
 570:Drivers/CMSIS/Include/cmsis_gcc.h ****  */
 571:Drivers/CMSIS/Include/cmsis_gcc.h **** __attribute__((always_inline)) __STATIC_INLINE uint32_t __get_MSPLIM(void)
 572:Drivers/CMSIS/Include/cmsis_gcc.h **** {
 573:Drivers/CMSIS/Include/cmsis_gcc.h ****   register uint32_t result;
 574:Drivers/CMSIS/Include/cmsis_gcc.h **** 
 575:Drivers/CMSIS/Include/cmsis_gcc.h ****   __ASM volatile ("MRS %0, msplim" : "=r" (result) );
 576:Drivers/CMSIS/Include/cmsis_gcc.h **** 
 577:Drivers/CMSIS/Include/cmsis_gcc.h ****   return(result);
 578:Drivers/CMSIS/Include/cmsis_gcc.h **** }
 579:Drivers/CMSIS/Include/cmsis_gcc.h **** 
 580:Drivers/CMSIS/Include/cmsis_gcc.h **** 
 581:Drivers/CMSIS/Include/cmsis_gcc.h **** #if ((defined (__ARM_FEATURE_CMSE  ) && (__ARM_FEATURE_CMSE   == 3)) && \
 582:Drivers/CMSIS/Include/cmsis_gcc.h ****      (defined (__ARM_ARCH_8M_MAIN__) && (__ARM_ARCH_8M_MAIN__ == 1))    )
 583:Drivers/CMSIS/Include/cmsis_gcc.h **** /**
 584:Drivers/CMSIS/Include/cmsis_gcc.h ****   \brief   Get Main Stack Pointer Limit (non-secure)
 585:Drivers/CMSIS/Include/cmsis_gcc.h ****   \details Returns the current value of the non-secure Main Stack Pointer Limit(MSPLIM) when in sec
 586:Drivers/CMSIS/Include/cmsis_gcc.h ****   \return               MSPLIM Register value
ARM GAS  /tmp/ccgxYAWl.s 			page 15


 587:Drivers/CMSIS/Include/cmsis_gcc.h ****  */
 588:Drivers/CMSIS/Include/cmsis_gcc.h **** __attribute__((always_inline)) __STATIC_INLINE uint32_t __TZ_get_MSPLIM_NS(void)
 589:Drivers/CMSIS/Include/cmsis_gcc.h **** {
 590:Drivers/CMSIS/Include/cmsis_gcc.h ****   register uint32_t result;
 591:Drivers/CMSIS/Include/cmsis_gcc.h **** 
 592:Drivers/CMSIS/Include/cmsis_gcc.h ****   __ASM volatile ("MRS %0, msplim_ns" : "=r" (result) );
 593:Drivers/CMSIS/Include/cmsis_gcc.h ****   return(result);
 594:Drivers/CMSIS/Include/cmsis_gcc.h **** }
 595:Drivers/CMSIS/Include/cmsis_gcc.h **** #endif
 596:Drivers/CMSIS/Include/cmsis_gcc.h **** 
 597:Drivers/CMSIS/Include/cmsis_gcc.h **** 
 598:Drivers/CMSIS/Include/cmsis_gcc.h **** /**
 599:Drivers/CMSIS/Include/cmsis_gcc.h ****   \brief   Set Main Stack Pointer Limit
 600:Drivers/CMSIS/Include/cmsis_gcc.h ****   \details Assigns the given value to the Main Stack Pointer Limit (MSPLIM).
 601:Drivers/CMSIS/Include/cmsis_gcc.h ****   \param [in]    MainStackPtrLimit  Main Stack Pointer Limit value to set
 602:Drivers/CMSIS/Include/cmsis_gcc.h ****  */
 603:Drivers/CMSIS/Include/cmsis_gcc.h **** __attribute__((always_inline)) __STATIC_INLINE void __set_MSPLIM(uint32_t MainStackPtrLimit)
 604:Drivers/CMSIS/Include/cmsis_gcc.h **** {
 605:Drivers/CMSIS/Include/cmsis_gcc.h ****   __ASM volatile ("MSR msplim, %0" : : "r" (MainStackPtrLimit));
 606:Drivers/CMSIS/Include/cmsis_gcc.h **** }
 607:Drivers/CMSIS/Include/cmsis_gcc.h **** 
 608:Drivers/CMSIS/Include/cmsis_gcc.h **** 
 609:Drivers/CMSIS/Include/cmsis_gcc.h **** #if ((defined (__ARM_FEATURE_CMSE  ) && (__ARM_FEATURE_CMSE   == 3)) && \
 610:Drivers/CMSIS/Include/cmsis_gcc.h ****      (defined (__ARM_ARCH_8M_MAIN__) && (__ARM_ARCH_8M_MAIN__ == 1))    )
 611:Drivers/CMSIS/Include/cmsis_gcc.h **** /**
 612:Drivers/CMSIS/Include/cmsis_gcc.h ****   \brief   Set Main Stack Pointer Limit (non-secure)
 613:Drivers/CMSIS/Include/cmsis_gcc.h ****   \details Assigns the given value to the non-secure Main Stack Pointer Limit (MSPLIM) when in secu
 614:Drivers/CMSIS/Include/cmsis_gcc.h ****   \param [in]    MainStackPtrLimit  Main Stack Pointer value to set
 615:Drivers/CMSIS/Include/cmsis_gcc.h ****  */
 616:Drivers/CMSIS/Include/cmsis_gcc.h **** __attribute__((always_inline)) __STATIC_INLINE void __TZ_set_MSPLIM_NS(uint32_t MainStackPtrLimit)
 617:Drivers/CMSIS/Include/cmsis_gcc.h **** {
 618:Drivers/CMSIS/Include/cmsis_gcc.h ****   __ASM volatile ("MSR msplim_ns, %0" : : "r" (MainStackPtrLimit));
 619:Drivers/CMSIS/Include/cmsis_gcc.h **** }
 620:Drivers/CMSIS/Include/cmsis_gcc.h **** #endif
 621:Drivers/CMSIS/Include/cmsis_gcc.h **** 
 622:Drivers/CMSIS/Include/cmsis_gcc.h **** #endif /* ((defined (__ARM_ARCH_8M_MAIN__ ) && (__ARM_ARCH_8M_MAIN__ == 1)) || \
 623:Drivers/CMSIS/Include/cmsis_gcc.h ****            (defined (__ARM_ARCH_8M_BASE__ ) && (__ARM_ARCH_8M_BASE__ == 1))    ) */
 624:Drivers/CMSIS/Include/cmsis_gcc.h **** 
 625:Drivers/CMSIS/Include/cmsis_gcc.h **** 
 626:Drivers/CMSIS/Include/cmsis_gcc.h **** #if ((defined (__ARM_ARCH_7EM__     ) && (__ARM_ARCH_7EM__     == 1)) || \
 627:Drivers/CMSIS/Include/cmsis_gcc.h ****      (defined (__ARM_ARCH_8M_MAIN__ ) && (__ARM_ARCH_8M_MAIN__ == 1))    )
 628:Drivers/CMSIS/Include/cmsis_gcc.h **** 
 629:Drivers/CMSIS/Include/cmsis_gcc.h **** /**
 630:Drivers/CMSIS/Include/cmsis_gcc.h ****   \brief   Get FPSCR
 631:Drivers/CMSIS/Include/cmsis_gcc.h ****   \details Returns the current value of the Floating Point Status/Control register.
 632:Drivers/CMSIS/Include/cmsis_gcc.h ****   \return               Floating Point Status/Control register value
 633:Drivers/CMSIS/Include/cmsis_gcc.h ****  */
 634:Drivers/CMSIS/Include/cmsis_gcc.h **** __attribute__((always_inline)) __STATIC_INLINE uint32_t __get_FPSCR(void)
 635:Drivers/CMSIS/Include/cmsis_gcc.h **** {
 636:Drivers/CMSIS/Include/cmsis_gcc.h **** #if ((defined (__FPU_PRESENT) && (__FPU_PRESENT == 1U)) && \
 637:Drivers/CMSIS/Include/cmsis_gcc.h ****      (defined (__FPU_USED   ) && (__FPU_USED    == 1U))     )
 638:Drivers/CMSIS/Include/cmsis_gcc.h ****   uint32_t result;
 639:Drivers/CMSIS/Include/cmsis_gcc.h **** 
 640:Drivers/CMSIS/Include/cmsis_gcc.h ****   __ASM volatile ("VMRS %0, fpscr" : "=r" (result) );
 641:Drivers/CMSIS/Include/cmsis_gcc.h ****   return(result);
 642:Drivers/CMSIS/Include/cmsis_gcc.h **** #else
 643:Drivers/CMSIS/Include/cmsis_gcc.h ****    return(0U);
ARM GAS  /tmp/ccgxYAWl.s 			page 16


 644:Drivers/CMSIS/Include/cmsis_gcc.h **** #endif
 645:Drivers/CMSIS/Include/cmsis_gcc.h **** }
 646:Drivers/CMSIS/Include/cmsis_gcc.h **** 
 647:Drivers/CMSIS/Include/cmsis_gcc.h **** 
 648:Drivers/CMSIS/Include/cmsis_gcc.h **** /**
 649:Drivers/CMSIS/Include/cmsis_gcc.h ****   \brief   Set FPSCR
 650:Drivers/CMSIS/Include/cmsis_gcc.h ****   \details Assigns the given value to the Floating Point Status/Control register.
 651:Drivers/CMSIS/Include/cmsis_gcc.h ****   \param [in]    fpscr  Floating Point Status/Control value to set
 652:Drivers/CMSIS/Include/cmsis_gcc.h ****  */
 653:Drivers/CMSIS/Include/cmsis_gcc.h **** __attribute__((always_inline)) __STATIC_INLINE void __set_FPSCR(uint32_t fpscr)
 654:Drivers/CMSIS/Include/cmsis_gcc.h **** {
 655:Drivers/CMSIS/Include/cmsis_gcc.h **** #if ((defined (__FPU_PRESENT) && (__FPU_PRESENT == 1U)) && \
 656:Drivers/CMSIS/Include/cmsis_gcc.h ****      (defined (__FPU_USED   ) && (__FPU_USED    == 1U))     )
 657:Drivers/CMSIS/Include/cmsis_gcc.h ****   __ASM volatile ("VMSR fpscr, %0" : : "r" (fpscr) : "vfpcc", "memory");
 658:Drivers/CMSIS/Include/cmsis_gcc.h **** #else
 659:Drivers/CMSIS/Include/cmsis_gcc.h ****   (void)fpscr;
 660:Drivers/CMSIS/Include/cmsis_gcc.h **** #endif
 661:Drivers/CMSIS/Include/cmsis_gcc.h **** }
 662:Drivers/CMSIS/Include/cmsis_gcc.h **** 
 663:Drivers/CMSIS/Include/cmsis_gcc.h **** #endif /* ((defined (__ARM_ARCH_7EM__     ) && (__ARM_ARCH_7EM__     == 1)) || \
 664:Drivers/CMSIS/Include/cmsis_gcc.h ****            (defined (__ARM_ARCH_8M_MAIN__ ) && (__ARM_ARCH_8M_MAIN__ == 1))    ) */
 665:Drivers/CMSIS/Include/cmsis_gcc.h **** 
 666:Drivers/CMSIS/Include/cmsis_gcc.h **** 
 667:Drivers/CMSIS/Include/cmsis_gcc.h **** 
 668:Drivers/CMSIS/Include/cmsis_gcc.h **** /*@} end of CMSIS_Core_RegAccFunctions */
 669:Drivers/CMSIS/Include/cmsis_gcc.h **** 
 670:Drivers/CMSIS/Include/cmsis_gcc.h **** 
 671:Drivers/CMSIS/Include/cmsis_gcc.h **** /* ##########################  Core Instruction Access  ######################### */
 672:Drivers/CMSIS/Include/cmsis_gcc.h **** /** \defgroup CMSIS_Core_InstructionInterface CMSIS Core Instruction Interface
 673:Drivers/CMSIS/Include/cmsis_gcc.h ****   Access to dedicated instructions
 674:Drivers/CMSIS/Include/cmsis_gcc.h ****   @{
 675:Drivers/CMSIS/Include/cmsis_gcc.h **** */
 676:Drivers/CMSIS/Include/cmsis_gcc.h **** 
 677:Drivers/CMSIS/Include/cmsis_gcc.h **** /* Define macros for porting to both thumb1 and thumb2.
 678:Drivers/CMSIS/Include/cmsis_gcc.h ****  * For thumb1, use low register (r0-r7), specified by constraint "l"
 679:Drivers/CMSIS/Include/cmsis_gcc.h ****  * Otherwise, use general registers, specified by constraint "r" */
 680:Drivers/CMSIS/Include/cmsis_gcc.h **** #if defined (__thumb__) && !defined (__thumb2__)
 681:Drivers/CMSIS/Include/cmsis_gcc.h **** #define __CMSIS_GCC_OUT_REG(r) "=l" (r)
 682:Drivers/CMSIS/Include/cmsis_gcc.h **** #define __CMSIS_GCC_RW_REG(r) "+l" (r)
 683:Drivers/CMSIS/Include/cmsis_gcc.h **** #define __CMSIS_GCC_USE_REG(r) "l" (r)
 684:Drivers/CMSIS/Include/cmsis_gcc.h **** #else
 685:Drivers/CMSIS/Include/cmsis_gcc.h **** #define __CMSIS_GCC_OUT_REG(r) "=r" (r)
 686:Drivers/CMSIS/Include/cmsis_gcc.h **** #define __CMSIS_GCC_RW_REG(r) "+r" (r)
 687:Drivers/CMSIS/Include/cmsis_gcc.h **** #define __CMSIS_GCC_USE_REG(r) "r" (r)
 688:Drivers/CMSIS/Include/cmsis_gcc.h **** #endif
 689:Drivers/CMSIS/Include/cmsis_gcc.h **** 
 690:Drivers/CMSIS/Include/cmsis_gcc.h **** /**
 691:Drivers/CMSIS/Include/cmsis_gcc.h ****   \brief   No Operation
 692:Drivers/CMSIS/Include/cmsis_gcc.h ****   \details No Operation does nothing. This instruction can be used for code alignment purposes.
 693:Drivers/CMSIS/Include/cmsis_gcc.h ****  */
 694:Drivers/CMSIS/Include/cmsis_gcc.h **** //__attribute__((always_inline)) __STATIC_INLINE void __NOP(void)
 695:Drivers/CMSIS/Include/cmsis_gcc.h **** //{
 696:Drivers/CMSIS/Include/cmsis_gcc.h **** //  __ASM volatile ("nop");
 697:Drivers/CMSIS/Include/cmsis_gcc.h **** //}
 698:Drivers/CMSIS/Include/cmsis_gcc.h **** #define __NOP()                             __ASM volatile ("nop")       /* This implementation gen
 699:Drivers/CMSIS/Include/cmsis_gcc.h **** 
 700:Drivers/CMSIS/Include/cmsis_gcc.h **** /**
ARM GAS  /tmp/ccgxYAWl.s 			page 17


 701:Drivers/CMSIS/Include/cmsis_gcc.h ****   \brief   Wait For Interrupt
 702:Drivers/CMSIS/Include/cmsis_gcc.h ****   \details Wait For Interrupt is a hint instruction that suspends execution until one of a number o
 703:Drivers/CMSIS/Include/cmsis_gcc.h ****  */
 704:Drivers/CMSIS/Include/cmsis_gcc.h **** //__attribute__((always_inline)) __STATIC_INLINE void __WFI(void)
 705:Drivers/CMSIS/Include/cmsis_gcc.h **** //{
 706:Drivers/CMSIS/Include/cmsis_gcc.h **** //  __ASM volatile ("wfi");
 707:Drivers/CMSIS/Include/cmsis_gcc.h **** //}
 708:Drivers/CMSIS/Include/cmsis_gcc.h **** #define __WFI()                             __ASM volatile ("wfi")       /* This implementation gen
 709:Drivers/CMSIS/Include/cmsis_gcc.h **** 
 710:Drivers/CMSIS/Include/cmsis_gcc.h **** 
 711:Drivers/CMSIS/Include/cmsis_gcc.h **** /**
 712:Drivers/CMSIS/Include/cmsis_gcc.h ****   \brief   Wait For Event
 713:Drivers/CMSIS/Include/cmsis_gcc.h ****   \details Wait For Event is a hint instruction that permits the processor to enter
 714:Drivers/CMSIS/Include/cmsis_gcc.h ****            a low-power state until one of a number of events occurs.
 715:Drivers/CMSIS/Include/cmsis_gcc.h ****  */
 716:Drivers/CMSIS/Include/cmsis_gcc.h **** //__attribute__((always_inline)) __STATIC_INLINE void __WFE(void)
 717:Drivers/CMSIS/Include/cmsis_gcc.h **** //{
 718:Drivers/CMSIS/Include/cmsis_gcc.h **** //  __ASM volatile ("wfe");
 719:Drivers/CMSIS/Include/cmsis_gcc.h **** //}
 720:Drivers/CMSIS/Include/cmsis_gcc.h **** #define __WFE()                             __ASM volatile ("wfe")       /* This implementation gen
 721:Drivers/CMSIS/Include/cmsis_gcc.h **** 
 722:Drivers/CMSIS/Include/cmsis_gcc.h **** 
 723:Drivers/CMSIS/Include/cmsis_gcc.h **** /**
 724:Drivers/CMSIS/Include/cmsis_gcc.h ****   \brief   Send Event
 725:Drivers/CMSIS/Include/cmsis_gcc.h ****   \details Send Event is a hint instruction. It causes an event to be signaled to the CPU.
 726:Drivers/CMSIS/Include/cmsis_gcc.h ****  */
 727:Drivers/CMSIS/Include/cmsis_gcc.h **** //__attribute__((always_inline)) __STATIC_INLINE void __SEV(void)
 728:Drivers/CMSIS/Include/cmsis_gcc.h **** //{
 729:Drivers/CMSIS/Include/cmsis_gcc.h **** //  __ASM volatile ("sev");
 730:Drivers/CMSIS/Include/cmsis_gcc.h **** //}
 731:Drivers/CMSIS/Include/cmsis_gcc.h **** #define __SEV()                             __ASM volatile ("sev")       /* This implementation gen
 732:Drivers/CMSIS/Include/cmsis_gcc.h **** 
 733:Drivers/CMSIS/Include/cmsis_gcc.h **** 
 734:Drivers/CMSIS/Include/cmsis_gcc.h **** /**
 735:Drivers/CMSIS/Include/cmsis_gcc.h ****   \brief   Instruction Synchronization Barrier
 736:Drivers/CMSIS/Include/cmsis_gcc.h ****   \details Instruction Synchronization Barrier flushes the pipeline in the processor,
 737:Drivers/CMSIS/Include/cmsis_gcc.h ****            so that all instructions following the ISB are fetched from cache or memory,
 738:Drivers/CMSIS/Include/cmsis_gcc.h ****            after the instruction has been completed.
 739:Drivers/CMSIS/Include/cmsis_gcc.h ****  */
 740:Drivers/CMSIS/Include/cmsis_gcc.h **** __attribute__((always_inline)) __STATIC_INLINE void __ISB(void)
 741:Drivers/CMSIS/Include/cmsis_gcc.h **** {
 742:Drivers/CMSIS/Include/cmsis_gcc.h ****   __ASM volatile ("isb 0xF":::"memory");
 743:Drivers/CMSIS/Include/cmsis_gcc.h **** }
 744:Drivers/CMSIS/Include/cmsis_gcc.h **** 
 745:Drivers/CMSIS/Include/cmsis_gcc.h **** 
 746:Drivers/CMSIS/Include/cmsis_gcc.h **** /**
 747:Drivers/CMSIS/Include/cmsis_gcc.h ****   \brief   Data Synchronization Barrier
 748:Drivers/CMSIS/Include/cmsis_gcc.h ****   \details Acts as a special kind of Data Memory Barrier.
 749:Drivers/CMSIS/Include/cmsis_gcc.h ****            It completes when all explicit memory accesses before this instruction complete.
 750:Drivers/CMSIS/Include/cmsis_gcc.h ****  */
 751:Drivers/CMSIS/Include/cmsis_gcc.h **** __attribute__((always_inline)) __STATIC_INLINE void __DSB(void)
 752:Drivers/CMSIS/Include/cmsis_gcc.h **** {
 753:Drivers/CMSIS/Include/cmsis_gcc.h ****   __ASM volatile ("dsb 0xF":::"memory");
 754:Drivers/CMSIS/Include/cmsis_gcc.h **** }
 755:Drivers/CMSIS/Include/cmsis_gcc.h **** 
 756:Drivers/CMSIS/Include/cmsis_gcc.h **** 
 757:Drivers/CMSIS/Include/cmsis_gcc.h **** /**
ARM GAS  /tmp/ccgxYAWl.s 			page 18


 758:Drivers/CMSIS/Include/cmsis_gcc.h ****   \brief   Data Memory Barrier
 759:Drivers/CMSIS/Include/cmsis_gcc.h ****   \details Ensures the apparent order of the explicit memory operations before
 760:Drivers/CMSIS/Include/cmsis_gcc.h ****            and after the instruction, without ensuring their completion.
 761:Drivers/CMSIS/Include/cmsis_gcc.h ****  */
 762:Drivers/CMSIS/Include/cmsis_gcc.h **** __attribute__((always_inline)) __STATIC_INLINE void __DMB(void)
 763:Drivers/CMSIS/Include/cmsis_gcc.h **** {
 764:Drivers/CMSIS/Include/cmsis_gcc.h ****   __ASM volatile ("dmb 0xF":::"memory");
 765:Drivers/CMSIS/Include/cmsis_gcc.h **** }
 766:Drivers/CMSIS/Include/cmsis_gcc.h **** 
 767:Drivers/CMSIS/Include/cmsis_gcc.h **** 
 768:Drivers/CMSIS/Include/cmsis_gcc.h **** /**
 769:Drivers/CMSIS/Include/cmsis_gcc.h ****   \brief   Reverse byte order (32 bit)
 770:Drivers/CMSIS/Include/cmsis_gcc.h ****   \details Reverses the byte order in integer value.
 771:Drivers/CMSIS/Include/cmsis_gcc.h ****   \param [in]    value  Value to reverse
 772:Drivers/CMSIS/Include/cmsis_gcc.h ****   \return               Reversed value
 773:Drivers/CMSIS/Include/cmsis_gcc.h ****  */
 774:Drivers/CMSIS/Include/cmsis_gcc.h **** __attribute__((always_inline)) __STATIC_INLINE uint32_t __REV(uint32_t value)
 775:Drivers/CMSIS/Include/cmsis_gcc.h **** {
 776:Drivers/CMSIS/Include/cmsis_gcc.h **** #if (__GNUC__ > 4) || (__GNUC__ == 4 && __GNUC_MINOR__ >= 5)
 777:Drivers/CMSIS/Include/cmsis_gcc.h ****   return __builtin_bswap32(value);
 778:Drivers/CMSIS/Include/cmsis_gcc.h **** #else
 779:Drivers/CMSIS/Include/cmsis_gcc.h ****   uint32_t result;
 780:Drivers/CMSIS/Include/cmsis_gcc.h **** 
 781:Drivers/CMSIS/Include/cmsis_gcc.h ****   __ASM volatile ("rev %0, %1" : __CMSIS_GCC_OUT_REG (result) : __CMSIS_GCC_USE_REG (value) );
 782:Drivers/CMSIS/Include/cmsis_gcc.h ****   return(result);
 783:Drivers/CMSIS/Include/cmsis_gcc.h **** #endif
 784:Drivers/CMSIS/Include/cmsis_gcc.h **** }
 785:Drivers/CMSIS/Include/cmsis_gcc.h **** 
 786:Drivers/CMSIS/Include/cmsis_gcc.h **** 
 787:Drivers/CMSIS/Include/cmsis_gcc.h **** /**
 788:Drivers/CMSIS/Include/cmsis_gcc.h ****   \brief   Reverse byte order (16 bit)
 789:Drivers/CMSIS/Include/cmsis_gcc.h ****   \details Reverses the byte order in two unsigned short values.
 790:Drivers/CMSIS/Include/cmsis_gcc.h ****   \param [in]    value  Value to reverse
 791:Drivers/CMSIS/Include/cmsis_gcc.h ****   \return               Reversed value
 792:Drivers/CMSIS/Include/cmsis_gcc.h ****  */
 793:Drivers/CMSIS/Include/cmsis_gcc.h **** __attribute__((always_inline)) __STATIC_INLINE uint32_t __REV16(uint32_t value)
 794:Drivers/CMSIS/Include/cmsis_gcc.h **** {
 795:Drivers/CMSIS/Include/cmsis_gcc.h ****   uint32_t result;
 796:Drivers/CMSIS/Include/cmsis_gcc.h **** 
 797:Drivers/CMSIS/Include/cmsis_gcc.h ****   __ASM volatile ("rev16 %0, %1" : __CMSIS_GCC_OUT_REG (result) : __CMSIS_GCC_USE_REG (value) );
 798:Drivers/CMSIS/Include/cmsis_gcc.h ****   return(result);
 799:Drivers/CMSIS/Include/cmsis_gcc.h **** }
 800:Drivers/CMSIS/Include/cmsis_gcc.h **** 
 801:Drivers/CMSIS/Include/cmsis_gcc.h **** 
 802:Drivers/CMSIS/Include/cmsis_gcc.h **** /**
 803:Drivers/CMSIS/Include/cmsis_gcc.h ****   \brief   Reverse byte order in signed short value
 804:Drivers/CMSIS/Include/cmsis_gcc.h ****   \details Reverses the byte order in a signed short value with sign extension to integer.
 805:Drivers/CMSIS/Include/cmsis_gcc.h ****   \param [in]    value  Value to reverse
 806:Drivers/CMSIS/Include/cmsis_gcc.h ****   \return               Reversed value
 807:Drivers/CMSIS/Include/cmsis_gcc.h ****  */
 808:Drivers/CMSIS/Include/cmsis_gcc.h **** __attribute__((always_inline)) __STATIC_INLINE int32_t __REVSH(int32_t value)
 809:Drivers/CMSIS/Include/cmsis_gcc.h **** {
 810:Drivers/CMSIS/Include/cmsis_gcc.h **** #if (__GNUC__ > 4) || (__GNUC__ == 4 && __GNUC_MINOR__ >= 8)
 811:Drivers/CMSIS/Include/cmsis_gcc.h ****   return (short)__builtin_bswap16(value);
 812:Drivers/CMSIS/Include/cmsis_gcc.h **** #else
 813:Drivers/CMSIS/Include/cmsis_gcc.h ****   int32_t result;
 814:Drivers/CMSIS/Include/cmsis_gcc.h **** 
ARM GAS  /tmp/ccgxYAWl.s 			page 19


 815:Drivers/CMSIS/Include/cmsis_gcc.h ****   __ASM volatile ("revsh %0, %1" : __CMSIS_GCC_OUT_REG (result) : __CMSIS_GCC_USE_REG (value) );
 816:Drivers/CMSIS/Include/cmsis_gcc.h ****   return(result);
 817:Drivers/CMSIS/Include/cmsis_gcc.h **** #endif
 818:Drivers/CMSIS/Include/cmsis_gcc.h **** }
 819:Drivers/CMSIS/Include/cmsis_gcc.h **** 
 820:Drivers/CMSIS/Include/cmsis_gcc.h **** 
 821:Drivers/CMSIS/Include/cmsis_gcc.h **** /**
 822:Drivers/CMSIS/Include/cmsis_gcc.h ****   \brief   Rotate Right in unsigned value (32 bit)
 823:Drivers/CMSIS/Include/cmsis_gcc.h ****   \details Rotate Right (immediate) provides the value of the contents of a register rotated by a v
 824:Drivers/CMSIS/Include/cmsis_gcc.h ****   \param [in]    op1  Value to rotate
 825:Drivers/CMSIS/Include/cmsis_gcc.h ****   \param [in]    op2  Number of Bits to rotate
 826:Drivers/CMSIS/Include/cmsis_gcc.h ****   \return               Rotated value
 827:Drivers/CMSIS/Include/cmsis_gcc.h ****  */
 828:Drivers/CMSIS/Include/cmsis_gcc.h **** __attribute__((always_inline)) __STATIC_INLINE uint32_t __ROR(uint32_t op1, uint32_t op2)
 829:Drivers/CMSIS/Include/cmsis_gcc.h **** {
 830:Drivers/CMSIS/Include/cmsis_gcc.h ****   return (op1 >> op2) | (op1 << (32U - op2));
 831:Drivers/CMSIS/Include/cmsis_gcc.h **** }
 832:Drivers/CMSIS/Include/cmsis_gcc.h **** 
 833:Drivers/CMSIS/Include/cmsis_gcc.h **** 
 834:Drivers/CMSIS/Include/cmsis_gcc.h **** /**
 835:Drivers/CMSIS/Include/cmsis_gcc.h ****   \brief   Breakpoint
 836:Drivers/CMSIS/Include/cmsis_gcc.h ****   \details Causes the processor to enter Debug state.
 837:Drivers/CMSIS/Include/cmsis_gcc.h ****            Debug tools can use this to investigate system state when the instruction at a particula
 838:Drivers/CMSIS/Include/cmsis_gcc.h ****   \param [in]    value  is ignored by the processor.
 839:Drivers/CMSIS/Include/cmsis_gcc.h ****                  If required, a debugger can use it to store additional information about the break
 840:Drivers/CMSIS/Include/cmsis_gcc.h ****  */
 841:Drivers/CMSIS/Include/cmsis_gcc.h **** #define __BKPT(value)                       __ASM volatile ("bkpt "#value)
 842:Drivers/CMSIS/Include/cmsis_gcc.h **** 
 843:Drivers/CMSIS/Include/cmsis_gcc.h **** 
 844:Drivers/CMSIS/Include/cmsis_gcc.h **** /**
 845:Drivers/CMSIS/Include/cmsis_gcc.h ****   \brief   Reverse bit order of value
 846:Drivers/CMSIS/Include/cmsis_gcc.h ****   \details Reverses the bit order of the given value.
 847:Drivers/CMSIS/Include/cmsis_gcc.h ****   \param [in]    value  Value to reverse
 848:Drivers/CMSIS/Include/cmsis_gcc.h ****   \return               Reversed value
 849:Drivers/CMSIS/Include/cmsis_gcc.h ****  */
 850:Drivers/CMSIS/Include/cmsis_gcc.h **** __attribute__((always_inline)) __STATIC_INLINE uint32_t __RBIT(uint32_t value)
  53              		.loc 2 850 57 is_stmt 1 view .LVU7
  54              	.LBB19:
 851:Drivers/CMSIS/Include/cmsis_gcc.h **** {
 852:Drivers/CMSIS/Include/cmsis_gcc.h ****   uint32_t result;
  55              		.loc 2 852 3 view .LVU8
 853:Drivers/CMSIS/Include/cmsis_gcc.h **** 
 854:Drivers/CMSIS/Include/cmsis_gcc.h **** #if ((defined (__ARM_ARCH_7M__      ) && (__ARM_ARCH_7M__      == 1)) || \
 855:Drivers/CMSIS/Include/cmsis_gcc.h ****      (defined (__ARM_ARCH_7EM__     ) && (__ARM_ARCH_7EM__     == 1)) || \
 856:Drivers/CMSIS/Include/cmsis_gcc.h ****      (defined (__ARM_ARCH_8M_MAIN__ ) && (__ARM_ARCH_8M_MAIN__ == 1))    )
 857:Drivers/CMSIS/Include/cmsis_gcc.h ****    __ASM volatile ("rbit %0, %1" : "=r" (result) : "r" (value) );
  56              		.loc 2 857 4 view .LVU9
  57 000a 4FF47F45 		mov	r5, #65280
  58              		.syntax unified
  59              	@ 857 "Drivers/CMSIS/Include/cmsis_gcc.h" 1
  60 000e 95FAA5F3 		rbit r3, r5
  61              	@ 0 "" 2
  62              	.LVL2:
 858:Drivers/CMSIS/Include/cmsis_gcc.h **** #else
 859:Drivers/CMSIS/Include/cmsis_gcc.h ****   int32_t s = (4 /*sizeof(v)*/ * 8) - 1; /* extra shift needed at end */
 860:Drivers/CMSIS/Include/cmsis_gcc.h **** 
 861:Drivers/CMSIS/Include/cmsis_gcc.h ****   result = value;                      /* r will be reversed bits of v; first get LSB of v */
ARM GAS  /tmp/ccgxYAWl.s 			page 20


 862:Drivers/CMSIS/Include/cmsis_gcc.h ****   for (value >>= 1U; value; value >>= 1U)
 863:Drivers/CMSIS/Include/cmsis_gcc.h ****   {
 864:Drivers/CMSIS/Include/cmsis_gcc.h ****     result <<= 1U;
 865:Drivers/CMSIS/Include/cmsis_gcc.h ****     result |= value & 1U;
 866:Drivers/CMSIS/Include/cmsis_gcc.h ****     s--;
 867:Drivers/CMSIS/Include/cmsis_gcc.h ****   }
 868:Drivers/CMSIS/Include/cmsis_gcc.h ****   result <<= s;                        /* shift when v's highest bits are zero */
 869:Drivers/CMSIS/Include/cmsis_gcc.h **** #endif
 870:Drivers/CMSIS/Include/cmsis_gcc.h ****   return(result);
  63              		.loc 2 870 3 view .LVU10
  64              		.loc 2 870 3 is_stmt 0 view .LVU11
  65              		.thumb
  66              		.syntax unified
  67              	.LBE19:
  68              	.LBE18:
  69              		.loc 1 161 78 view .LVU12
  70 0012 B3FA83F3 		clz	r3, r3
  71              		.loc 1 161 75 view .LVU13
  72 0016 00FA03F3 		lsl	r3, r0, r3
  73              		.loc 1 161 109 view .LVU14
  74 001a 2B40     		ands	r3, r3, r5
  75              		.loc 1 161 49 view .LVU15
  76 001c 2343     		orrs	r3, r3, r4
  77              		.loc 1 161 128 view .LVU16
  78 001e 43F00043 		orr	r3, r3, #-2147483648
  79              		.loc 1 161 18 view .LVU17
  80 0022 0C4A     		ldr	r2, .L5
  81 0024 42F82630 		str	r3, [r2, r6, lsl #2]
 162:Drivers/STM32H7xx_HAL_Driver/Src/stm32h7xx_hal_hsem.c **** 
 163:Drivers/STM32H7xx_HAL_Driver/Src/stm32h7xx_hal_hsem.c ****   /* second step : read the R register . Take achieved if MasterID and processID match and take bit
 164:Drivers/STM32H7xx_HAL_Driver/Src/stm32h7xx_hal_hsem.c ****   if(HSEM->R[SemID] == ((ProcessID & HSEM_R_PROCID) | ((HAL_GetCurrentCPUID() << POSITION_VAL(HSEM_
  82              		.loc 1 164 3 is_stmt 1 view .LVU18
  83              		.loc 1 164 13 is_stmt 0 view .LVU19
  84 0028 52F82660 		ldr	r6, [r2, r6, lsl #2]
  85              	.LVL3:
  86              		.loc 1 164 57 view .LVU20
  87 002c FFF7FEFF 		bl	HAL_GetCurrentCPUID
  88              	.LVL4:
  89              	.LBB20:
  90              	.LBI20:
 850:Drivers/CMSIS/Include/cmsis_gcc.h **** {
  91              		.loc 2 850 57 is_stmt 1 view .LVU21
  92              	.LBB21:
 852:Drivers/CMSIS/Include/cmsis_gcc.h **** 
  93              		.loc 2 852 3 view .LVU22
 857:Drivers/CMSIS/Include/cmsis_gcc.h **** #else
  94              		.loc 2 857 4 view .LVU23
  95              		.syntax unified
  96              	@ 857 "Drivers/CMSIS/Include/cmsis_gcc.h" 1
  97 0030 95FAA5F5 		rbit r5, r5
  98              	@ 0 "" 2
  99              	.LVL5:
 100              		.loc 2 870 3 view .LVU24
 101              		.loc 2 870 3 is_stmt 0 view .LVU25
 102              		.thumb
 103              		.syntax unified
 104              	.LBE21:
ARM GAS  /tmp/ccgxYAWl.s 			page 21


 105              	.LBE20:
 106              		.loc 1 164 82 view .LVU26
 107 0034 B5FA85F5 		clz	r5, r5
 108              		.loc 1 164 79 view .LVU27
 109 0038 00FA05F5 		lsl	r5, r0, r5
 110              		.loc 1 164 113 view .LVU28
 111 003c 05F47F45 		and	r5, r5, #65280
 112              		.loc 1 164 53 view .LVU29
 113 0040 2C43     		orrs	r4, r4, r5
 114              		.loc 1 164 132 view .LVU30
 115 0042 44F00044 		orr	r4, r4, #-2147483648
 116              		.loc 1 164 5 view .LVU31
 117 0046 A642     		cmp	r6, r4
 118 0048 01D0     		beq	.L3
 165:Drivers/STM32H7xx_HAL_Driver/Src/stm32h7xx_hal_hsem.c ****   {
 166:Drivers/STM32H7xx_HAL_Driver/Src/stm32h7xx_hal_hsem.c ****     /*take success when MasterID and ProcessID match and take bit set*/
 167:Drivers/STM32H7xx_HAL_Driver/Src/stm32h7xx_hal_hsem.c ****     return HAL_OK; 
 168:Drivers/STM32H7xx_HAL_Driver/Src/stm32h7xx_hal_hsem.c ****   } 
 169:Drivers/STM32H7xx_HAL_Driver/Src/stm32h7xx_hal_hsem.c **** 
 170:Drivers/STM32H7xx_HAL_Driver/Src/stm32h7xx_hal_hsem.c ****   /* Semaphore take fails*/
 171:Drivers/STM32H7xx_HAL_Driver/Src/stm32h7xx_hal_hsem.c ****   return HAL_ERROR;
 119              		.loc 1 171 10 view .LVU32
 120 004a 0120     		movs	r0, #1
 121              	.L2:
 172:Drivers/STM32H7xx_HAL_Driver/Src/stm32h7xx_hal_hsem.c **** }
 122              		.loc 1 172 1 view .LVU33
 123 004c 70BD     		pop	{r4, r5, r6, pc}
 124              	.L3:
 167:Drivers/STM32H7xx_HAL_Driver/Src/stm32h7xx_hal_hsem.c ****   } 
 125              		.loc 1 167 12 view .LVU34
 126 004e 0020     		movs	r0, #0
 127 0050 FCE7     		b	.L2
 128              	.L6:
 129 0052 00BF     		.align	2
 130              	.L5:
 131 0054 00640258 		.word	1476551680
 132              		.cfi_endproc
 133              	.LFE137:
 135              		.section	.text.HAL_HSEM_FastTake,"ax",%progbits
 136              		.align	1
 137              		.global	HAL_HSEM_FastTake
 138              		.syntax unified
 139              		.thumb
 140              		.thumb_func
 141              		.fpu fpv5-d16
 143              	HAL_HSEM_FastTake:
 144              	.LVL6:
 145              	.LFB138:
 173:Drivers/STM32H7xx_HAL_Driver/Src/stm32h7xx_hal_hsem.c ****   
 174:Drivers/STM32H7xx_HAL_Driver/Src/stm32h7xx_hal_hsem.c **** /**
 175:Drivers/STM32H7xx_HAL_Driver/Src/stm32h7xx_hal_hsem.c ****   * @brief  Fast Take a semaphore with 1 Step mode. 
 176:Drivers/STM32H7xx_HAL_Driver/Src/stm32h7xx_hal_hsem.c ****   * @param  SemID: semaphore ID from 0 to 31    
 177:Drivers/STM32H7xx_HAL_Driver/Src/stm32h7xx_hal_hsem.c ****   * @retval HAL status
 178:Drivers/STM32H7xx_HAL_Driver/Src/stm32h7xx_hal_hsem.c **** */
 179:Drivers/STM32H7xx_HAL_Driver/Src/stm32h7xx_hal_hsem.c **** HAL_StatusTypeDef HAL_HSEM_FastTake(uint32_t SemID)
 180:Drivers/STM32H7xx_HAL_Driver/Src/stm32h7xx_hal_hsem.c **** {     
 146              		.loc 1 180 1 is_stmt 1 view -0
ARM GAS  /tmp/ccgxYAWl.s 			page 22


 147              		.cfi_startproc
 148              		@ args = 0, pretend = 0, frame = 0
 149              		@ frame_needed = 0, uses_anonymous_args = 0
 150              		.loc 1 180 1 is_stmt 0 view .LVU36
 151 0000 10B5     		push	{r4, lr}
 152              	.LCFI1:
 153              		.cfi_def_cfa_offset 8
 154              		.cfi_offset 4, -8
 155              		.cfi_offset 14, -4
 181:Drivers/STM32H7xx_HAL_Driver/Src/stm32h7xx_hal_hsem.c ****   /* Check the parameters */
 182:Drivers/STM32H7xx_HAL_Driver/Src/stm32h7xx_hal_hsem.c ****   assert_param(IS_HSEM_SEMID(SemID));
 156              		.loc 1 182 3 is_stmt 1 view .LVU37
 183:Drivers/STM32H7xx_HAL_Driver/Src/stm32h7xx_hal_hsem.c ****  
 184:Drivers/STM32H7xx_HAL_Driver/Src/stm32h7xx_hal_hsem.c ****   /* Read the RLR register to take the semaphore */    
 185:Drivers/STM32H7xx_HAL_Driver/Src/stm32h7xx_hal_hsem.c ****   if(HSEM->RLR[SemID] == (((HAL_GetCurrentCPUID() << POSITION_VAL(HSEM_R_MASTERID)) & HSEM_RLR_MAST
 157              		.loc 1 185 3 view .LVU38
 158              		.loc 1 185 15 is_stmt 0 view .LVU39
 159 0002 2030     		adds	r0, r0, #32
 160              	.LVL7:
 161              		.loc 1 185 15 view .LVU40
 162 0004 0A4B     		ldr	r3, .L11
 163 0006 53F82040 		ldr	r4, [r3, r0, lsl #2]
 164              		.loc 1 185 29 view .LVU41
 165 000a FFF7FEFF 		bl	HAL_GetCurrentCPUID
 166              	.LVL8:
 167              	.LBB22:
 168              	.LBI22:
 850:Drivers/CMSIS/Include/cmsis_gcc.h **** {
 169              		.loc 2 850 57 is_stmt 1 view .LVU42
 170              	.LBB23:
 852:Drivers/CMSIS/Include/cmsis_gcc.h **** 
 171              		.loc 2 852 3 view .LVU43
 857:Drivers/CMSIS/Include/cmsis_gcc.h **** #else
 172              		.loc 2 857 4 view .LVU44
 173 000e 4FF47F43 		mov	r3, #65280
 174              		.syntax unified
 175              	@ 857 "Drivers/CMSIS/Include/cmsis_gcc.h" 1
 176 0012 93FAA3F3 		rbit r3, r3
 177              	@ 0 "" 2
 178              	.LVL9:
 179              		.loc 2 870 3 view .LVU45
 180              		.loc 2 870 3 is_stmt 0 view .LVU46
 181              		.thumb
 182              		.syntax unified
 183              	.LBE23:
 184              	.LBE22:
 185              		.loc 1 185 54 view .LVU47
 186 0016 B3FA83F3 		clz	r3, r3
 187              		.loc 1 185 51 view .LVU48
 188 001a 9840     		lsls	r0, r0, r3
 189              		.loc 1 185 85 view .LVU49
 190 001c 00F47F40 		and	r0, r0, #65280
 191              		.loc 1 185 106 view .LVU50
 192 0020 40F00040 		orr	r0, r0, #-2147483648
 193              		.loc 1 185 5 view .LVU51
 194 0024 8442     		cmp	r4, r0
 195 0026 01D0     		beq	.L9
ARM GAS  /tmp/ccgxYAWl.s 			page 23


 186:Drivers/STM32H7xx_HAL_Driver/Src/stm32h7xx_hal_hsem.c ****   {
 187:Drivers/STM32H7xx_HAL_Driver/Src/stm32h7xx_hal_hsem.c ****     /*take success when MasterID match and take bit set*/
 188:Drivers/STM32H7xx_HAL_Driver/Src/stm32h7xx_hal_hsem.c ****     return HAL_OK;
 189:Drivers/STM32H7xx_HAL_Driver/Src/stm32h7xx_hal_hsem.c ****   }
 190:Drivers/STM32H7xx_HAL_Driver/Src/stm32h7xx_hal_hsem.c **** 
 191:Drivers/STM32H7xx_HAL_Driver/Src/stm32h7xx_hal_hsem.c ****   /* Semaphore take fails */  
 192:Drivers/STM32H7xx_HAL_Driver/Src/stm32h7xx_hal_hsem.c ****   return HAL_ERROR;  
 196              		.loc 1 192 10 view .LVU52
 197 0028 0120     		movs	r0, #1
 198              	.L8:
 193:Drivers/STM32H7xx_HAL_Driver/Src/stm32h7xx_hal_hsem.c **** } 
 199              		.loc 1 193 1 view .LVU53
 200 002a 10BD     		pop	{r4, pc}
 201              	.L9:
 188:Drivers/STM32H7xx_HAL_Driver/Src/stm32h7xx_hal_hsem.c ****   }
 202              		.loc 1 188 12 view .LVU54
 203 002c 0020     		movs	r0, #0
 204 002e FCE7     		b	.L8
 205              	.L12:
 206              		.align	2
 207              	.L11:
 208 0030 00640258 		.word	1476551680
 209              		.cfi_endproc
 210              	.LFE138:
 212              		.section	.text.HAL_HSEM_IsSemTaken,"ax",%progbits
 213              		.align	1
 214              		.global	HAL_HSEM_IsSemTaken
 215              		.syntax unified
 216              		.thumb
 217              		.thumb_func
 218              		.fpu fpv5-d16
 220              	HAL_HSEM_IsSemTaken:
 221              	.LVL10:
 222              	.LFB139:
 194:Drivers/STM32H7xx_HAL_Driver/Src/stm32h7xx_hal_hsem.c ****   
 195:Drivers/STM32H7xx_HAL_Driver/Src/stm32h7xx_hal_hsem.c **** /**
 196:Drivers/STM32H7xx_HAL_Driver/Src/stm32h7xx_hal_hsem.c ****   * @brief  Check semaphore state Taken or not. 
 197:Drivers/STM32H7xx_HAL_Driver/Src/stm32h7xx_hal_hsem.c ****   * @param  SemID: semaphore ID
 198:Drivers/STM32H7xx_HAL_Driver/Src/stm32h7xx_hal_hsem.c ****   * @retval HAL HSEM state
 199:Drivers/STM32H7xx_HAL_Driver/Src/stm32h7xx_hal_hsem.c ****   */
 200:Drivers/STM32H7xx_HAL_Driver/Src/stm32h7xx_hal_hsem.c **** uint32_t HAL_HSEM_IsSemTaken(uint32_t SemID)
 201:Drivers/STM32H7xx_HAL_Driver/Src/stm32h7xx_hal_hsem.c **** {
 223              		.loc 1 201 1 is_stmt 1 view -0
 224              		.cfi_startproc
 225              		@ args = 0, pretend = 0, frame = 0
 226              		@ frame_needed = 0, uses_anonymous_args = 0
 227              		@ link register save eliminated.
 202:Drivers/STM32H7xx_HAL_Driver/Src/stm32h7xx_hal_hsem.c ****   return ((HSEM->R[SemID] & HSEM_R_LOCK) != 0U);  
 228              		.loc 1 202 3 view .LVU56
 229              		.loc 1 202 19 is_stmt 0 view .LVU57
 230 0000 024B     		ldr	r3, .L14
 231 0002 53F82000 		ldr	r0, [r3, r0, lsl #2]
 232              	.LVL11:
 203:Drivers/STM32H7xx_HAL_Driver/Src/stm32h7xx_hal_hsem.c **** } 
 233              		.loc 1 203 1 view .LVU58
 234 0006 C00F     		lsrs	r0, r0, #31
 235 0008 7047     		bx	lr
ARM GAS  /tmp/ccgxYAWl.s 			page 24


 236              	.L15:
 237 000a 00BF     		.align	2
 238              	.L14:
 239 000c 00640258 		.word	1476551680
 240              		.cfi_endproc
 241              	.LFE139:
 243              		.section	.text.HAL_HSEM_Release,"ax",%progbits
 244              		.align	1
 245              		.global	HAL_HSEM_Release
 246              		.syntax unified
 247              		.thumb
 248              		.thumb_func
 249              		.fpu fpv5-d16
 251              	HAL_HSEM_Release:
 252              	.LVL12:
 253              	.LFB140:
 204:Drivers/STM32H7xx_HAL_Driver/Src/stm32h7xx_hal_hsem.c ****   
 205:Drivers/STM32H7xx_HAL_Driver/Src/stm32h7xx_hal_hsem.c **** 
 206:Drivers/STM32H7xx_HAL_Driver/Src/stm32h7xx_hal_hsem.c **** /**
 207:Drivers/STM32H7xx_HAL_Driver/Src/stm32h7xx_hal_hsem.c ****   * @brief  Release a semaphore. 
 208:Drivers/STM32H7xx_HAL_Driver/Src/stm32h7xx_hal_hsem.c ****   * @param  SemID: semaphore ID from 0 to 31   
 209:Drivers/STM32H7xx_HAL_Driver/Src/stm32h7xx_hal_hsem.c ****   * @param  ProcessID: Process ID from 0 to 255 
 210:Drivers/STM32H7xx_HAL_Driver/Src/stm32h7xx_hal_hsem.c ****   * @retval None
 211:Drivers/STM32H7xx_HAL_Driver/Src/stm32h7xx_hal_hsem.c **** */
 212:Drivers/STM32H7xx_HAL_Driver/Src/stm32h7xx_hal_hsem.c **** void  HAL_HSEM_Release(uint32_t SemID, uint32_t ProcessID)
 213:Drivers/STM32H7xx_HAL_Driver/Src/stm32h7xx_hal_hsem.c **** {  
 254              		.loc 1 213 1 is_stmt 1 view -0
 255              		.cfi_startproc
 256              		@ args = 0, pretend = 0, frame = 0
 257              		@ frame_needed = 0, uses_anonymous_args = 0
 258              		.loc 1 213 1 is_stmt 0 view .LVU60
 259 0000 38B5     		push	{r3, r4, r5, lr}
 260              	.LCFI2:
 261              		.cfi_def_cfa_offset 16
 262              		.cfi_offset 3, -16
 263              		.cfi_offset 4, -12
 264              		.cfi_offset 5, -8
 265              		.cfi_offset 14, -4
 266 0002 0546     		mov	r5, r0
 214:Drivers/STM32H7xx_HAL_Driver/Src/stm32h7xx_hal_hsem.c ****   /* Check the parameters */
 215:Drivers/STM32H7xx_HAL_Driver/Src/stm32h7xx_hal_hsem.c ****   assert_param(IS_HSEM_SEMID(SemID));
 267              		.loc 1 215 3 is_stmt 1 view .LVU61
 216:Drivers/STM32H7xx_HAL_Driver/Src/stm32h7xx_hal_hsem.c ****   assert_param(IS_HSEM_PROCESSID(ProcessID));  
 268              		.loc 1 216 3 view .LVU62
 217:Drivers/STM32H7xx_HAL_Driver/Src/stm32h7xx_hal_hsem.c ****   
 218:Drivers/STM32H7xx_HAL_Driver/Src/stm32h7xx_hal_hsem.c ****   /* Clear the semaphore by writing to the R register : the MasterID , the processID and take bit =
 219:Drivers/STM32H7xx_HAL_Driver/Src/stm32h7xx_hal_hsem.c ****   HSEM->R[SemID] = ((ProcessID & HSEM_R_PROCID) | ((HAL_GetCurrentCPUID() << POSITION_VAL(HSEM_R_MA
 269              		.loc 1 219 3 view .LVU63
 270              		.loc 1 219 32 is_stmt 0 view .LVU64
 271 0004 CCB2     		uxtb	r4, r1
 272              		.loc 1 219 53 view .LVU65
 273 0006 FFF7FEFF 		bl	HAL_GetCurrentCPUID
 274              	.LVL13:
 275              	.LBB24:
 276              	.LBI24:
 850:Drivers/CMSIS/Include/cmsis_gcc.h **** {
 277              		.loc 2 850 57 is_stmt 1 view .LVU66
ARM GAS  /tmp/ccgxYAWl.s 			page 25


 278              	.LBB25:
 852:Drivers/CMSIS/Include/cmsis_gcc.h **** 
 279              		.loc 2 852 3 view .LVU67
 857:Drivers/CMSIS/Include/cmsis_gcc.h **** #else
 280              		.loc 2 857 4 view .LVU68
 281 000a 4FF47F43 		mov	r3, #65280
 282              		.syntax unified
 283              	@ 857 "Drivers/CMSIS/Include/cmsis_gcc.h" 1
 284 000e 93FAA3F3 		rbit r3, r3
 285              	@ 0 "" 2
 286              	.LVL14:
 287              		.loc 2 870 3 view .LVU69
 288              		.loc 2 870 3 is_stmt 0 view .LVU70
 289              		.thumb
 290              		.syntax unified
 291              	.LBE25:
 292              	.LBE24:
 293              		.loc 1 219 78 view .LVU71
 294 0012 B3FA83F3 		clz	r3, r3
 295              		.loc 1 219 75 view .LVU72
 296 0016 9840     		lsls	r0, r0, r3
 297              		.loc 1 219 109 view .LVU73
 298 0018 00F47F40 		and	r0, r0, #65280
 299              		.loc 1 219 49 view .LVU74
 300 001c 2043     		orrs	r0, r0, r4
 301              		.loc 1 219 18 view .LVU75
 302 001e 024B     		ldr	r3, .L18
 303 0020 43F82500 		str	r0, [r3, r5, lsl #2]
 220:Drivers/STM32H7xx_HAL_Driver/Src/stm32h7xx_hal_hsem.c **** 
 221:Drivers/STM32H7xx_HAL_Driver/Src/stm32h7xx_hal_hsem.c **** }
 304              		.loc 1 221 1 view .LVU76
 305 0024 38BD     		pop	{r3, r4, r5, pc}
 306              	.LVL15:
 307              	.L19:
 308              		.loc 1 221 1 view .LVU77
 309 0026 00BF     		.align	2
 310              	.L18:
 311 0028 00640258 		.word	1476551680
 312              		.cfi_endproc
 313              	.LFE140:
 315              		.section	.text.HAL_HSEM_ReleaseAll,"ax",%progbits
 316              		.align	1
 317              		.global	HAL_HSEM_ReleaseAll
 318              		.syntax unified
 319              		.thumb
 320              		.thumb_func
 321              		.fpu fpv5-d16
 323              	HAL_HSEM_ReleaseAll:
 324              	.LVL16:
 325              	.LFB141:
 222:Drivers/STM32H7xx_HAL_Driver/Src/stm32h7xx_hal_hsem.c **** 
 223:Drivers/STM32H7xx_HAL_Driver/Src/stm32h7xx_hal_hsem.c **** /**
 224:Drivers/STM32H7xx_HAL_Driver/Src/stm32h7xx_hal_hsem.c ****   * @brief  Release All semaphore used by a given Master . 
 225:Drivers/STM32H7xx_HAL_Driver/Src/stm32h7xx_hal_hsem.c ****   * @param  Key: Semaphore Key , value from 0 to 0xFFFF
 226:Drivers/STM32H7xx_HAL_Driver/Src/stm32h7xx_hal_hsem.c ****   * @param  MasterID: MasterID of the CPU that is using semaphores to be Released 
 227:Drivers/STM32H7xx_HAL_Driver/Src/stm32h7xx_hal_hsem.c ****   * @retval None
 228:Drivers/STM32H7xx_HAL_Driver/Src/stm32h7xx_hal_hsem.c **** */
ARM GAS  /tmp/ccgxYAWl.s 			page 26


 229:Drivers/STM32H7xx_HAL_Driver/Src/stm32h7xx_hal_hsem.c **** void HAL_HSEM_ReleaseAll(uint32_t Key, uint32_t MasterID)
 230:Drivers/STM32H7xx_HAL_Driver/Src/stm32h7xx_hal_hsem.c **** {
 326              		.loc 1 230 1 is_stmt 1 view -0
 327              		.cfi_startproc
 328              		@ args = 0, pretend = 0, frame = 0
 329              		@ frame_needed = 0, uses_anonymous_args = 0
 330              		@ link register save eliminated.
 231:Drivers/STM32H7xx_HAL_Driver/Src/stm32h7xx_hal_hsem.c ****   assert_param(IS_HSEM_KEY(Key));  
 331              		.loc 1 231 3 view .LVU79
 232:Drivers/STM32H7xx_HAL_Driver/Src/stm32h7xx_hal_hsem.c ****   assert_param(IS_HSEM_MASTERID(MasterID));  
 332              		.loc 1 232 3 view .LVU80
 233:Drivers/STM32H7xx_HAL_Driver/Src/stm32h7xx_hal_hsem.c ****   
 234:Drivers/STM32H7xx_HAL_Driver/Src/stm32h7xx_hal_hsem.c ****   HSEM->CR = (((Key << POSITION_VAL(HSEM_KEYR_KEY)) & HSEM_CR_KEY ) | ((MasterID << POSITION_VAL(HS
 333              		.loc 1 234 3 view .LVU81
 334              	.LBB26:
 335              	.LBI26:
 850:Drivers/CMSIS/Include/cmsis_gcc.h **** {
 336              		.loc 2 850 57 view .LVU82
 337              	.LBB27:
 852:Drivers/CMSIS/Include/cmsis_gcc.h **** 
 338              		.loc 2 852 3 view .LVU83
 857:Drivers/CMSIS/Include/cmsis_gcc.h **** #else
 339              		.loc 2 857 4 view .LVU84
 340 0000 0A4A     		ldr	r2, .L21
 341              		.syntax unified
 342              	@ 857 "Drivers/CMSIS/Include/cmsis_gcc.h" 1
 343 0002 92FAA2F3 		rbit r3, r2
 344              	@ 0 "" 2
 345              	.LVL17:
 346              		.loc 2 870 3 view .LVU85
 347              		.loc 2 870 3 is_stmt 0 view .LVU86
 348              		.thumb
 349              		.syntax unified
 350              	.LBE27:
 351              	.LBE26:
 352              		.loc 1 234 24 view .LVU87
 353 0006 B3FA83F3 		clz	r3, r3
 354              		.loc 1 234 21 view .LVU88
 355 000a 9840     		lsls	r0, r0, r3
 356              	.LVL18:
 357              		.loc 1 234 53 view .LVU89
 358 000c 1040     		ands	r0, r0, r2
 359              	.LVL19:
 360              	.LBB28:
 361              	.LBI28:
 850:Drivers/CMSIS/Include/cmsis_gcc.h **** {
 362              		.loc 2 850 57 is_stmt 1 view .LVU90
 363              	.LBB29:
 852:Drivers/CMSIS/Include/cmsis_gcc.h **** 
 364              		.loc 2 852 3 view .LVU91
 857:Drivers/CMSIS/Include/cmsis_gcc.h **** #else
 365              		.loc 2 857 4 view .LVU92
 366 000e 4FF47F43 		mov	r3, #65280
 367              		.syntax unified
 368              	@ 857 "Drivers/CMSIS/Include/cmsis_gcc.h" 1
 369 0012 93FAA3F3 		rbit r3, r3
 370              	@ 0 "" 2
ARM GAS  /tmp/ccgxYAWl.s 			page 27


 371              	.LVL20:
 372              		.loc 2 870 3 view .LVU93
 373              		.loc 2 870 3 is_stmt 0 view .LVU94
 374              		.thumb
 375              		.syntax unified
 376              	.LBE29:
 377              	.LBE28:
 378              		.loc 1 234 85 view .LVU95
 379 0016 B3FA83F3 		clz	r3, r3
 380              		.loc 1 234 82 view .LVU96
 381 001a 9940     		lsls	r1, r1, r3
 382              	.LVL21:
 383              		.loc 1 234 117 view .LVU97
 384 001c 01F47F41 		and	r1, r1, #65280
 385              		.loc 1 234 69 view .LVU98
 386 0020 0843     		orrs	r0, r0, r1
 387              		.loc 1 234 12 view .LVU99
 388 0022 034B     		ldr	r3, .L21+4
 389 0024 C3F84001 		str	r0, [r3, #320]
 235:Drivers/STM32H7xx_HAL_Driver/Src/stm32h7xx_hal_hsem.c **** }
 390              		.loc 1 235 1 view .LVU100
 391 0028 7047     		bx	lr
 392              	.L22:
 393 002a 00BF     		.align	2
 394              	.L21:
 395 002c 0000FFFF 		.word	-65536
 396 0030 00640258 		.word	1476551680
 397              		.cfi_endproc
 398              	.LFE141:
 400              		.section	.text.HAL_HSEM_SetClearKey,"ax",%progbits
 401              		.align	1
 402              		.global	HAL_HSEM_SetClearKey
 403              		.syntax unified
 404              		.thumb
 405              		.thumb_func
 406              		.fpu fpv5-d16
 408              	HAL_HSEM_SetClearKey:
 409              	.LVL22:
 410              	.LFB142:
 236:Drivers/STM32H7xx_HAL_Driver/Src/stm32h7xx_hal_hsem.c **** 
 237:Drivers/STM32H7xx_HAL_Driver/Src/stm32h7xx_hal_hsem.c **** /**
 238:Drivers/STM32H7xx_HAL_Driver/Src/stm32h7xx_hal_hsem.c ****   * @}
 239:Drivers/STM32H7xx_HAL_Driver/Src/stm32h7xx_hal_hsem.c ****   */
 240:Drivers/STM32H7xx_HAL_Driver/Src/stm32h7xx_hal_hsem.c **** 
 241:Drivers/STM32H7xx_HAL_Driver/Src/stm32h7xx_hal_hsem.c **** /** @defgroup HSEM_Exported_Functions_Group2 HSEM Set and Get Key functions 
 242:Drivers/STM32H7xx_HAL_Driver/Src/stm32h7xx_hal_hsem.c ****  *  @brief    HSEM Set and Get Key functions. 
 243:Drivers/STM32H7xx_HAL_Driver/Src/stm32h7xx_hal_hsem.c ****  *
 244:Drivers/STM32H7xx_HAL_Driver/Src/stm32h7xx_hal_hsem.c **** @verbatim
 245:Drivers/STM32H7xx_HAL_Driver/Src/stm32h7xx_hal_hsem.c ****   ==============================================================================
 246:Drivers/STM32H7xx_HAL_Driver/Src/stm32h7xx_hal_hsem.c ****               ##### HSEM Set and Get Key functions #####
 247:Drivers/STM32H7xx_HAL_Driver/Src/stm32h7xx_hal_hsem.c ****   ==============================================================================
 248:Drivers/STM32H7xx_HAL_Driver/Src/stm32h7xx_hal_hsem.c ****     [..]  This section provides functions allowing to:
 249:Drivers/STM32H7xx_HAL_Driver/Src/stm32h7xx_hal_hsem.c ****       (+) Set semaphore Key
 250:Drivers/STM32H7xx_HAL_Driver/Src/stm32h7xx_hal_hsem.c ****       (+) Get semaphore Key
 251:Drivers/STM32H7xx_HAL_Driver/Src/stm32h7xx_hal_hsem.c **** @endverbatim
 252:Drivers/STM32H7xx_HAL_Driver/Src/stm32h7xx_hal_hsem.c **** 
 253:Drivers/STM32H7xx_HAL_Driver/Src/stm32h7xx_hal_hsem.c ****   * @{
ARM GAS  /tmp/ccgxYAWl.s 			page 28


 254:Drivers/STM32H7xx_HAL_Driver/Src/stm32h7xx_hal_hsem.c ****   */
 255:Drivers/STM32H7xx_HAL_Driver/Src/stm32h7xx_hal_hsem.c **** 
 256:Drivers/STM32H7xx_HAL_Driver/Src/stm32h7xx_hal_hsem.c **** /**
 257:Drivers/STM32H7xx_HAL_Driver/Src/stm32h7xx_hal_hsem.c ****   * @brief  Set semaphore Key . 
 258:Drivers/STM32H7xx_HAL_Driver/Src/stm32h7xx_hal_hsem.c ****   * @param  Key: Semaphore Key , value from 0 to 0xFFFF
 259:Drivers/STM32H7xx_HAL_Driver/Src/stm32h7xx_hal_hsem.c ****   * @retval None
 260:Drivers/STM32H7xx_HAL_Driver/Src/stm32h7xx_hal_hsem.c **** */
 261:Drivers/STM32H7xx_HAL_Driver/Src/stm32h7xx_hal_hsem.c **** void  HAL_HSEM_SetClearKey(uint32_t Key)
 262:Drivers/STM32H7xx_HAL_Driver/Src/stm32h7xx_hal_hsem.c **** {
 411              		.loc 1 262 1 is_stmt 1 view -0
 412              		.cfi_startproc
 413              		@ args = 0, pretend = 0, frame = 0
 414              		@ frame_needed = 0, uses_anonymous_args = 0
 415              		@ link register save eliminated.
 263:Drivers/STM32H7xx_HAL_Driver/Src/stm32h7xx_hal_hsem.c ****   assert_param(IS_HSEM_KEY(Key));
 416              		.loc 1 263 3 view .LVU102
 264:Drivers/STM32H7xx_HAL_Driver/Src/stm32h7xx_hal_hsem.c ****   
 265:Drivers/STM32H7xx_HAL_Driver/Src/stm32h7xx_hal_hsem.c ****   MODIFY_REG(HSEM->KEYR, HSEM_KEYR_KEY, (Key << POSITION_VAL(HSEM_KEYR_KEY)));
 417              		.loc 1 265 3 view .LVU103
 418 0000 0749     		ldr	r1, .L24
 419 0002 D1F84431 		ldr	r3, [r1, #324]
 420 0006 9BB2     		uxth	r3, r3
 421              	.LVL23:
 422              	.LBB30:
 423              	.LBI30:
 850:Drivers/CMSIS/Include/cmsis_gcc.h **** {
 424              		.loc 2 850 57 view .LVU104
 425              	.LBB31:
 852:Drivers/CMSIS/Include/cmsis_gcc.h **** 
 426              		.loc 2 852 3 view .LVU105
 857:Drivers/CMSIS/Include/cmsis_gcc.h **** #else
 427              		.loc 2 857 4 view .LVU106
 428 0008 064A     		ldr	r2, .L24+4
 429              		.syntax unified
 430              	@ 857 "Drivers/CMSIS/Include/cmsis_gcc.h" 1
 431 000a 92FAA2F2 		rbit r2, r2
 432              	@ 0 "" 2
 433              	.LVL24:
 434              		.loc 2 870 3 view .LVU107
 435              		.loc 2 870 3 is_stmt 0 view .LVU108
 436              		.thumb
 437              		.syntax unified
 438              	.LBE31:
 439              	.LBE30:
 440              		.loc 1 265 3 view .LVU109
 441 000e B2FA82F2 		clz	r2, r2
 442 0012 00FA02F2 		lsl	r2, r0, r2
 443 0016 1343     		orrs	r3, r3, r2
 444 0018 C1F84431 		str	r3, [r1, #324]
 266:Drivers/STM32H7xx_HAL_Driver/Src/stm32h7xx_hal_hsem.c ****      
 267:Drivers/STM32H7xx_HAL_Driver/Src/stm32h7xx_hal_hsem.c **** }
 445              		.loc 1 267 1 view .LVU110
 446 001c 7047     		bx	lr
 447              	.L25:
 448 001e 00BF     		.align	2
 449              	.L24:
 450 0020 00640258 		.word	1476551680
ARM GAS  /tmp/ccgxYAWl.s 			page 29


 451 0024 0000FFFF 		.word	-65536
 452              		.cfi_endproc
 453              	.LFE142:
 455              		.section	.text.HAL_HSEM_GetClearKey,"ax",%progbits
 456              		.align	1
 457              		.global	HAL_HSEM_GetClearKey
 458              		.syntax unified
 459              		.thumb
 460              		.thumb_func
 461              		.fpu fpv5-d16
 463              	HAL_HSEM_GetClearKey:
 464              	.LFB143:
 268:Drivers/STM32H7xx_HAL_Driver/Src/stm32h7xx_hal_hsem.c **** 
 269:Drivers/STM32H7xx_HAL_Driver/Src/stm32h7xx_hal_hsem.c **** /**
 270:Drivers/STM32H7xx_HAL_Driver/Src/stm32h7xx_hal_hsem.c ****   * @brief  Get semaphore Key . 
 271:Drivers/STM32H7xx_HAL_Driver/Src/stm32h7xx_hal_hsem.c ****   * @retval Semaphore Key , value from 0 to 0xFFFF
 272:Drivers/STM32H7xx_HAL_Driver/Src/stm32h7xx_hal_hsem.c **** */
 273:Drivers/STM32H7xx_HAL_Driver/Src/stm32h7xx_hal_hsem.c **** uint32_t HAL_HSEM_GetClearKey(void)
 274:Drivers/STM32H7xx_HAL_Driver/Src/stm32h7xx_hal_hsem.c **** {
 465              		.loc 1 274 1 is_stmt 1 view -0
 466              		.cfi_startproc
 467              		@ args = 0, pretend = 0, frame = 0
 468              		@ frame_needed = 0, uses_anonymous_args = 0
 469              		@ link register save eliminated.
 275:Drivers/STM32H7xx_HAL_Driver/Src/stm32h7xx_hal_hsem.c ****   return (HSEM->KEYR >> POSITION_VAL(HSEM_KEYR_KEY));
 470              		.loc 1 275 3 view .LVU112
 471              		.loc 1 275 15 is_stmt 0 view .LVU113
 472 0000 044B     		ldr	r3, .L27
 473 0002 D3F84401 		ldr	r0, [r3, #324]
 474              	.LVL25:
 475              	.LBB32:
 476              	.LBI32:
 850:Drivers/CMSIS/Include/cmsis_gcc.h **** {
 477              		.loc 2 850 57 is_stmt 1 view .LVU114
 478              	.LBB33:
 852:Drivers/CMSIS/Include/cmsis_gcc.h **** 
 479              		.loc 2 852 3 view .LVU115
 857:Drivers/CMSIS/Include/cmsis_gcc.h **** #else
 480              		.loc 2 857 4 view .LVU116
 481 0006 044B     		ldr	r3, .L27+4
 482              		.syntax unified
 483              	@ 857 "Drivers/CMSIS/Include/cmsis_gcc.h" 1
 484 0008 93FAA3F3 		rbit r3, r3
 485              	@ 0 "" 2
 486              	.LVL26:
 487              		.loc 2 870 3 view .LVU117
 488              		.loc 2 870 3 is_stmt 0 view .LVU118
 489              		.thumb
 490              		.syntax unified
 491              	.LBE33:
 492              	.LBE32:
 493              		.loc 1 275 25 view .LVU119
 494 000c B3FA83F3 		clz	r3, r3
 276:Drivers/STM32H7xx_HAL_Driver/Src/stm32h7xx_hal_hsem.c **** }
 495              		.loc 1 276 1 view .LVU120
 496 0010 D840     		lsrs	r0, r0, r3
 497 0012 7047     		bx	lr
ARM GAS  /tmp/ccgxYAWl.s 			page 30


 498              	.L28:
 499              		.align	2
 500              	.L27:
 501 0014 00640258 		.word	1476551680
 502 0018 0000FFFF 		.word	-65536
 503              		.cfi_endproc
 504              	.LFE143:
 506              		.section	.text.HAL_HSEM_ActivateNotification,"ax",%progbits
 507              		.align	1
 508              		.global	HAL_HSEM_ActivateNotification
 509              		.syntax unified
 510              		.thumb
 511              		.thumb_func
 512              		.fpu fpv5-d16
 514              	HAL_HSEM_ActivateNotification:
 515              	.LVL27:
 516              	.LFB144:
 277:Drivers/STM32H7xx_HAL_Driver/Src/stm32h7xx_hal_hsem.c **** 
 278:Drivers/STM32H7xx_HAL_Driver/Src/stm32h7xx_hal_hsem.c **** /**
 279:Drivers/STM32H7xx_HAL_Driver/Src/stm32h7xx_hal_hsem.c ****   * @}
 280:Drivers/STM32H7xx_HAL_Driver/Src/stm32h7xx_hal_hsem.c ****   */
 281:Drivers/STM32H7xx_HAL_Driver/Src/stm32h7xx_hal_hsem.c ****   
 282:Drivers/STM32H7xx_HAL_Driver/Src/stm32h7xx_hal_hsem.c **** /** @defgroup HSEM_Exported_Functions_Group3 HSEM IRQ handler management  
 283:Drivers/STM32H7xx_HAL_Driver/Src/stm32h7xx_hal_hsem.c ****  *  @brief    HSEM Notification functions.
 284:Drivers/STM32H7xx_HAL_Driver/Src/stm32h7xx_hal_hsem.c ****  *
 285:Drivers/STM32H7xx_HAL_Driver/Src/stm32h7xx_hal_hsem.c **** @verbatim   
 286:Drivers/STM32H7xx_HAL_Driver/Src/stm32h7xx_hal_hsem.c ****   ==============================================================================
 287:Drivers/STM32H7xx_HAL_Driver/Src/stm32h7xx_hal_hsem.c ****       ##### HSEM IRQ handler management and Notification functions #####
 288:Drivers/STM32H7xx_HAL_Driver/Src/stm32h7xx_hal_hsem.c ****   ==============================================================================  
 289:Drivers/STM32H7xx_HAL_Driver/Src/stm32h7xx_hal_hsem.c **** [..]  This section provides HSEM IRQ handler and Notification function.
 290:Drivers/STM32H7xx_HAL_Driver/Src/stm32h7xx_hal_hsem.c **** 
 291:Drivers/STM32H7xx_HAL_Driver/Src/stm32h7xx_hal_hsem.c **** @endverbatim
 292:Drivers/STM32H7xx_HAL_Driver/Src/stm32h7xx_hal_hsem.c ****   * @{
 293:Drivers/STM32H7xx_HAL_Driver/Src/stm32h7xx_hal_hsem.c ****   */
 294:Drivers/STM32H7xx_HAL_Driver/Src/stm32h7xx_hal_hsem.c **** 
 295:Drivers/STM32H7xx_HAL_Driver/Src/stm32h7xx_hal_hsem.c **** /**
 296:Drivers/STM32H7xx_HAL_Driver/Src/stm32h7xx_hal_hsem.c ****   * @brief  Activate Semaphore release Notification for a given Semaphores Mask . 
 297:Drivers/STM32H7xx_HAL_Driver/Src/stm32h7xx_hal_hsem.c ****   * @param  SemMask: Mask of Released semaphores
 298:Drivers/STM32H7xx_HAL_Driver/Src/stm32h7xx_hal_hsem.c ****   * @retval Semaphore Key
 299:Drivers/STM32H7xx_HAL_Driver/Src/stm32h7xx_hal_hsem.c **** */
 300:Drivers/STM32H7xx_HAL_Driver/Src/stm32h7xx_hal_hsem.c **** void HAL_HSEM_ActivateNotification(uint32_t SemMask)
 301:Drivers/STM32H7xx_HAL_Driver/Src/stm32h7xx_hal_hsem.c **** {
 517              		.loc 1 301 1 is_stmt 1 view -0
 518              		.cfi_startproc
 519              		@ args = 0, pretend = 0, frame = 0
 520              		@ frame_needed = 0, uses_anonymous_args = 0
 521              		@ link register save eliminated.
 302:Drivers/STM32H7xx_HAL_Driver/Src/stm32h7xx_hal_hsem.c ****   /*Activate interrupt for CM7 Master */
 303:Drivers/STM32H7xx_HAL_Driver/Src/stm32h7xx_hal_hsem.c ****   HSEM->IER |= SemMask;     
 522              		.loc 1 303 3 view .LVU122
 523              		.loc 1 303 13 is_stmt 0 view .LVU123
 524 0000 034A     		ldr	r2, .L30
 525 0002 D2F80031 		ldr	r3, [r2, #256]
 526 0006 1843     		orrs	r0, r0, r3
 527              	.LVL28:
 528              		.loc 1 303 13 view .LVU124
 529 0008 C2F80001 		str	r0, [r2, #256]
ARM GAS  /tmp/ccgxYAWl.s 			page 31


 304:Drivers/STM32H7xx_HAL_Driver/Src/stm32h7xx_hal_hsem.c **** }
 530              		.loc 1 304 1 view .LVU125
 531 000c 7047     		bx	lr
 532              	.L31:
 533 000e 00BF     		.align	2
 534              	.L30:
 535 0010 00640258 		.word	1476551680
 536              		.cfi_endproc
 537              	.LFE144:
 539              		.section	.text.HAL_HSEM_DeactivateNotification,"ax",%progbits
 540              		.align	1
 541              		.global	HAL_HSEM_DeactivateNotification
 542              		.syntax unified
 543              		.thumb
 544              		.thumb_func
 545              		.fpu fpv5-d16
 547              	HAL_HSEM_DeactivateNotification:
 548              	.LVL29:
 549              	.LFB145:
 305:Drivers/STM32H7xx_HAL_Driver/Src/stm32h7xx_hal_hsem.c **** 
 306:Drivers/STM32H7xx_HAL_Driver/Src/stm32h7xx_hal_hsem.c **** /**
 307:Drivers/STM32H7xx_HAL_Driver/Src/stm32h7xx_hal_hsem.c ****   * @brief  Deactivate Semaphore release Notification for a given Semaphores Mask . 
 308:Drivers/STM32H7xx_HAL_Driver/Src/stm32h7xx_hal_hsem.c ****   * @param  SemMask: Mask of Released semaphores
 309:Drivers/STM32H7xx_HAL_Driver/Src/stm32h7xx_hal_hsem.c ****   * @retval Semaphore Key
 310:Drivers/STM32H7xx_HAL_Driver/Src/stm32h7xx_hal_hsem.c **** */
 311:Drivers/STM32H7xx_HAL_Driver/Src/stm32h7xx_hal_hsem.c **** void HAL_HSEM_DeactivateNotification(uint32_t SemMask)
 312:Drivers/STM32H7xx_HAL_Driver/Src/stm32h7xx_hal_hsem.c **** {
 550              		.loc 1 312 1 is_stmt 1 view -0
 551              		.cfi_startproc
 552              		@ args = 0, pretend = 0, frame = 0
 553              		@ frame_needed = 0, uses_anonymous_args = 0
 554              		@ link register save eliminated.
 313:Drivers/STM32H7xx_HAL_Driver/Src/stm32h7xx_hal_hsem.c **** 
 314:Drivers/STM32H7xx_HAL_Driver/Src/stm32h7xx_hal_hsem.c ****   /*Deactivate interrupt  for CM7 Master */
 315:Drivers/STM32H7xx_HAL_Driver/Src/stm32h7xx_hal_hsem.c ****   HSEM->IER &= ~SemMask;     
 555              		.loc 1 315 3 view .LVU127
 556              		.loc 1 315 13 is_stmt 0 view .LVU128
 557 0000 034A     		ldr	r2, .L33
 558 0002 D2F80031 		ldr	r3, [r2, #256]
 559 0006 23EA0000 		bic	r0, r3, r0
 560              	.LVL30:
 561              		.loc 1 315 13 view .LVU129
 562 000a C2F80001 		str	r0, [r2, #256]
 316:Drivers/STM32H7xx_HAL_Driver/Src/stm32h7xx_hal_hsem.c **** }
 563              		.loc 1 316 1 view .LVU130
 564 000e 7047     		bx	lr
 565              	.L34:
 566              		.align	2
 567              	.L33:
 568 0010 00640258 		.word	1476551680
 569              		.cfi_endproc
 570              	.LFE145:
 572              		.section	.text.HAL_HSEM_FreeCallback,"ax",%progbits
 573              		.align	1
 574              		.weak	HAL_HSEM_FreeCallback
 575              		.syntax unified
 576              		.thumb
ARM GAS  /tmp/ccgxYAWl.s 			page 32


 577              		.thumb_func
 578              		.fpu fpv5-d16
 580              	HAL_HSEM_FreeCallback:
 581              	.LVL31:
 582              	.LFB147:
 317:Drivers/STM32H7xx_HAL_Driver/Src/stm32h7xx_hal_hsem.c **** 
 318:Drivers/STM32H7xx_HAL_Driver/Src/stm32h7xx_hal_hsem.c **** /**
 319:Drivers/STM32H7xx_HAL_Driver/Src/stm32h7xx_hal_hsem.c ****   * @brief  This function handles HSEM interrupt request.
 320:Drivers/STM32H7xx_HAL_Driver/Src/stm32h7xx_hal_hsem.c ****   * @retval None
 321:Drivers/STM32H7xx_HAL_Driver/Src/stm32h7xx_hal_hsem.c **** */
 322:Drivers/STM32H7xx_HAL_Driver/Src/stm32h7xx_hal_hsem.c **** void HAL_HSEM_IRQHandler(void)
 323:Drivers/STM32H7xx_HAL_Driver/Src/stm32h7xx_hal_hsem.c **** {
 324:Drivers/STM32H7xx_HAL_Driver/Src/stm32h7xx_hal_hsem.c ****   uint32_t statusreg = 0U;
 325:Drivers/STM32H7xx_HAL_Driver/Src/stm32h7xx_hal_hsem.c **** 
 326:Drivers/STM32H7xx_HAL_Driver/Src/stm32h7xx_hal_hsem.c ****   /* Get the list of masked freed semaphores*/
 327:Drivers/STM32H7xx_HAL_Driver/Src/stm32h7xx_hal_hsem.c ****   statusreg = HSEM->MISR;
 328:Drivers/STM32H7xx_HAL_Driver/Src/stm32h7xx_hal_hsem.c **** 
 329:Drivers/STM32H7xx_HAL_Driver/Src/stm32h7xx_hal_hsem.c ****   /*Disable Interrupts*/
 330:Drivers/STM32H7xx_HAL_Driver/Src/stm32h7xx_hal_hsem.c ****   HSEM->IER &= ~((uint32_t)statusreg);
 331:Drivers/STM32H7xx_HAL_Driver/Src/stm32h7xx_hal_hsem.c ****   
 332:Drivers/STM32H7xx_HAL_Driver/Src/stm32h7xx_hal_hsem.c ****   /*Clear Flags*/
 333:Drivers/STM32H7xx_HAL_Driver/Src/stm32h7xx_hal_hsem.c ****   HSEM->ICR |=  ((uint32_t)statusreg); 
 334:Drivers/STM32H7xx_HAL_Driver/Src/stm32h7xx_hal_hsem.c **** 
 335:Drivers/STM32H7xx_HAL_Driver/Src/stm32h7xx_hal_hsem.c **** 
 336:Drivers/STM32H7xx_HAL_Driver/Src/stm32h7xx_hal_hsem.c ****   /* Call FreeCallback */ 
 337:Drivers/STM32H7xx_HAL_Driver/Src/stm32h7xx_hal_hsem.c ****   HAL_HSEM_FreeCallback(statusreg);  
 338:Drivers/STM32H7xx_HAL_Driver/Src/stm32h7xx_hal_hsem.c **** }
 339:Drivers/STM32H7xx_HAL_Driver/Src/stm32h7xx_hal_hsem.c **** 
 340:Drivers/STM32H7xx_HAL_Driver/Src/stm32h7xx_hal_hsem.c **** /**
 341:Drivers/STM32H7xx_HAL_Driver/Src/stm32h7xx_hal_hsem.c ****   * @brief Semaphore Released Callback.
 342:Drivers/STM32H7xx_HAL_Driver/Src/stm32h7xx_hal_hsem.c ****   * @param SemMask: Mask of Released semaphores
 343:Drivers/STM32H7xx_HAL_Driver/Src/stm32h7xx_hal_hsem.c ****   * @retval None
 344:Drivers/STM32H7xx_HAL_Driver/Src/stm32h7xx_hal_hsem.c ****   */
 345:Drivers/STM32H7xx_HAL_Driver/Src/stm32h7xx_hal_hsem.c **** __weak void HAL_HSEM_FreeCallback(uint32_t SemMask)
 346:Drivers/STM32H7xx_HAL_Driver/Src/stm32h7xx_hal_hsem.c **** {
 583              		.loc 1 346 1 is_stmt 1 view -0
 584              		.cfi_startproc
 585              		@ args = 0, pretend = 0, frame = 0
 586              		@ frame_needed = 0, uses_anonymous_args = 0
 587              		@ link register save eliminated.
 347:Drivers/STM32H7xx_HAL_Driver/Src/stm32h7xx_hal_hsem.c ****   /* Prevent unused argument(s) compilation warning */
 348:Drivers/STM32H7xx_HAL_Driver/Src/stm32h7xx_hal_hsem.c ****   UNUSED(SemMask);
 588              		.loc 1 348 3 view .LVU132
 349:Drivers/STM32H7xx_HAL_Driver/Src/stm32h7xx_hal_hsem.c ****   
 350:Drivers/STM32H7xx_HAL_Driver/Src/stm32h7xx_hal_hsem.c ****   /* NOTE : This function should not be modified, when the callback is needed,
 351:Drivers/STM32H7xx_HAL_Driver/Src/stm32h7xx_hal_hsem.c ****   the HAL_HSEM_FreeCallback can be implemented in the user file
 352:Drivers/STM32H7xx_HAL_Driver/Src/stm32h7xx_hal_hsem.c ****   */
 353:Drivers/STM32H7xx_HAL_Driver/Src/stm32h7xx_hal_hsem.c **** }  
 589              		.loc 1 353 1 is_stmt 0 view .LVU133
 590 0000 7047     		bx	lr
 591              		.cfi_endproc
 592              	.LFE147:
 594              		.section	.text.HAL_HSEM_IRQHandler,"ax",%progbits
 595              		.align	1
 596              		.global	HAL_HSEM_IRQHandler
 597              		.syntax unified
 598              		.thumb
ARM GAS  /tmp/ccgxYAWl.s 			page 33


 599              		.thumb_func
 600              		.fpu fpv5-d16
 602              	HAL_HSEM_IRQHandler:
 603              	.LFB146:
 323:Drivers/STM32H7xx_HAL_Driver/Src/stm32h7xx_hal_hsem.c ****   uint32_t statusreg = 0U;
 604              		.loc 1 323 1 is_stmt 1 view -0
 605              		.cfi_startproc
 606              		@ args = 0, pretend = 0, frame = 0
 607              		@ frame_needed = 0, uses_anonymous_args = 0
 608 0000 08B5     		push	{r3, lr}
 609              	.LCFI3:
 610              		.cfi_def_cfa_offset 8
 611              		.cfi_offset 3, -8
 612              		.cfi_offset 14, -4
 324:Drivers/STM32H7xx_HAL_Driver/Src/stm32h7xx_hal_hsem.c **** 
 613              		.loc 1 324 3 view .LVU135
 614              	.LVL32:
 327:Drivers/STM32H7xx_HAL_Driver/Src/stm32h7xx_hal_hsem.c **** 
 615              		.loc 1 327 3 view .LVU136
 327:Drivers/STM32H7xx_HAL_Driver/Src/stm32h7xx_hal_hsem.c **** 
 616              		.loc 1 327 13 is_stmt 0 view .LVU137
 617 0002 084B     		ldr	r3, .L38
 618 0004 D3F80C01 		ldr	r0, [r3, #268]
 619              	.LVL33:
 330:Drivers/STM32H7xx_HAL_Driver/Src/stm32h7xx_hal_hsem.c ****   
 620              		.loc 1 330 3 is_stmt 1 view .LVU138
 330:Drivers/STM32H7xx_HAL_Driver/Src/stm32h7xx_hal_hsem.c ****   
 621              		.loc 1 330 13 is_stmt 0 view .LVU139
 622 0008 D3F80021 		ldr	r2, [r3, #256]
 623 000c 22EA0002 		bic	r2, r2, r0
 624 0010 C3F80021 		str	r2, [r3, #256]
 333:Drivers/STM32H7xx_HAL_Driver/Src/stm32h7xx_hal_hsem.c **** 
 625              		.loc 1 333 3 is_stmt 1 view .LVU140
 333:Drivers/STM32H7xx_HAL_Driver/Src/stm32h7xx_hal_hsem.c **** 
 626              		.loc 1 333 13 is_stmt 0 view .LVU141
 627 0014 D3F80421 		ldr	r2, [r3, #260]
 628 0018 0243     		orrs	r2, r2, r0
 629 001a C3F80421 		str	r2, [r3, #260]
 337:Drivers/STM32H7xx_HAL_Driver/Src/stm32h7xx_hal_hsem.c **** }
 630              		.loc 1 337 3 is_stmt 1 view .LVU142
 631 001e FFF7FEFF 		bl	HAL_HSEM_FreeCallback
 632              	.LVL34:
 338:Drivers/STM32H7xx_HAL_Driver/Src/stm32h7xx_hal_hsem.c **** 
 633              		.loc 1 338 1 is_stmt 0 view .LVU143
 634 0022 08BD     		pop	{r3, pc}
 635              	.L39:
 636              		.align	2
 637              	.L38:
 638 0024 00640258 		.word	1476551680
 639              		.cfi_endproc
 640              	.LFE146:
 642              		.text
 643              	.Letext0:
 644              		.file 3 "/usr/arm-none-eabi/include/machine/_default_types.h"
 645              		.file 4 "/usr/arm-none-eabi/include/sys/_stdint.h"
 646              		.file 5 "Drivers/CMSIS/Include/core_cm7.h"
 647              		.file 6 "Drivers/CMSIS/Device/ST/STM32H7xx/Include/system_stm32h7xx.h"
ARM GAS  /tmp/ccgxYAWl.s 			page 34


 648              		.file 7 "Drivers/CMSIS/Device/ST/STM32H7xx/Include/stm32h743xx.h"
 649              		.file 8 "/usr/arm-none-eabi/include/sys/lock.h"
 650              		.file 9 "/usr/arm-none-eabi/include/sys/_types.h"
 651              		.file 10 "/usr/lib/gcc/arm-none-eabi/8.2.0/include/stddef.h"
 652              		.file 11 "/usr/arm-none-eabi/include/sys/reent.h"
 653              		.file 12 "Drivers/STM32H7xx_HAL_Driver/Inc/stm32h7xx_hal_def.h"
 654              		.file 13 "Drivers/STM32H7xx_HAL_Driver/Inc/stm32h7xx_hal_cortex.h"
ARM GAS  /tmp/ccgxYAWl.s 			page 35

