ARM GAS  /tmp/cc9ftHNL.s 			page 1


   1              		.cpu cortex-m7
   2              		.eabi_attribute 28, 1
   3              		.eabi_attribute 20, 1
   4              		.eabi_attribute 21, 1
   5              		.eabi_attribute 23, 3
   6              		.eabi_attribute 24, 1
   7              		.eabi_attribute 25, 1
   8              		.eabi_attribute 26, 1
   9              		.eabi_attribute 30, 1
  10              		.eabi_attribute 34, 1
  11              		.eabi_attribute 18, 4
  12              		.file	"stm32h7xx_hal_dac_ex.c"
  13              		.text
  14              	.Ltext0:
  15              		.cfi_sections	.debug_frame
  16              		.section	.text.HAL_DACEx_TriangleWaveGenerate,"ax",%progbits
  17              		.align	1
  18              		.global	HAL_DACEx_TriangleWaveGenerate
  19              		.arch armv7e-m
  20              		.syntax unified
  21              		.thumb
  22              		.thumb_func
  23              		.fpu fpv5-d16
  25              	HAL_DACEx_TriangleWaveGenerate:
  26              	.LVL0:
  27              	.LFB137:
  28              		.file 1 "Drivers/STM32H7xx_HAL_Driver/Src/stm32h7xx_hal_dac_ex.c"
   1:Drivers/STM32H7xx_HAL_Driver/Src/stm32h7xx_hal_dac_ex.c **** /**
   2:Drivers/STM32H7xx_HAL_Driver/Src/stm32h7xx_hal_dac_ex.c ****   ******************************************************************************
   3:Drivers/STM32H7xx_HAL_Driver/Src/stm32h7xx_hal_dac_ex.c ****   * @file    stm32h7xx_hal_dac_ex.c
   4:Drivers/STM32H7xx_HAL_Driver/Src/stm32h7xx_hal_dac_ex.c ****   * @author  MCD Application Team
   5:Drivers/STM32H7xx_HAL_Driver/Src/stm32h7xx_hal_dac_ex.c ****   * @brief   Extended DAC HAL module driver.
   6:Drivers/STM32H7xx_HAL_Driver/Src/stm32h7xx_hal_dac_ex.c ****   *         This file provides firmware functions to manage the extended 
   7:Drivers/STM32H7xx_HAL_Driver/Src/stm32h7xx_hal_dac_ex.c ****   *         functionalities of DAC peripheral.
   8:Drivers/STM32H7xx_HAL_Driver/Src/stm32h7xx_hal_dac_ex.c ****   *     
   9:Drivers/STM32H7xx_HAL_Driver/Src/stm32h7xx_hal_dac_ex.c ****   *
  10:Drivers/STM32H7xx_HAL_Driver/Src/stm32h7xx_hal_dac_ex.c ****   @verbatim      
  11:Drivers/STM32H7xx_HAL_Driver/Src/stm32h7xx_hal_dac_ex.c ****   ==============================================================================
  12:Drivers/STM32H7xx_HAL_Driver/Src/stm32h7xx_hal_dac_ex.c ****                       ##### How to use this driver #####
  13:Drivers/STM32H7xx_HAL_Driver/Src/stm32h7xx_hal_dac_ex.c ****   ==============================================================================
  14:Drivers/STM32H7xx_HAL_Driver/Src/stm32h7xx_hal_dac_ex.c ****     [..]          
  15:Drivers/STM32H7xx_HAL_Driver/Src/stm32h7xx_hal_dac_ex.c ****       (+) When Dual mode is enabled (i.e DAC Channel1 and Channel2 are used simultaneously) :
  16:Drivers/STM32H7xx_HAL_Driver/Src/stm32h7xx_hal_dac_ex.c ****           Use HAL_DACEx_DualGetValue() to get digital data to be converted and use
  17:Drivers/STM32H7xx_HAL_Driver/Src/stm32h7xx_hal_dac_ex.c ****           HAL_DACEx_DualSetValue() to set digital value to converted simultaneously in Channel 1 an
  18:Drivers/STM32H7xx_HAL_Driver/Src/stm32h7xx_hal_dac_ex.c ****       (+) Use HAL_DACEx_TriangleWaveGenerate() to generate Triangle signal.
  19:Drivers/STM32H7xx_HAL_Driver/Src/stm32h7xx_hal_dac_ex.c ****       (+) Use HAL_DACEx_NoiseWaveGenerate() to generate Noise signal.
  20:Drivers/STM32H7xx_HAL_Driver/Src/stm32h7xx_hal_dac_ex.c **** 
  21:Drivers/STM32H7xx_HAL_Driver/Src/stm32h7xx_hal_dac_ex.c ****       (+) HAL_DACEx_SelfCalibrate to calibrate one DAC channel.
  22:Drivers/STM32H7xx_HAL_Driver/Src/stm32h7xx_hal_dac_ex.c ****       (+) HAL_DACEx_SetUserTrimming to set user trimming value.
  23:Drivers/STM32H7xx_HAL_Driver/Src/stm32h7xx_hal_dac_ex.c ****       (+) HAL_DACEx_GetTrimOffset to retrieve trimming value (factory setting 
  24:Drivers/STM32H7xx_HAL_Driver/Src/stm32h7xx_hal_dac_ex.c ****           after reset, user setting if HAL_DACEx_SetUserTrimming have been used 
  25:Drivers/STM32H7xx_HAL_Driver/Src/stm32h7xx_hal_dac_ex.c ****           at least one time after reset).
  26:Drivers/STM32H7xx_HAL_Driver/Src/stm32h7xx_hal_dac_ex.c **** 
  27:Drivers/STM32H7xx_HAL_Driver/Src/stm32h7xx_hal_dac_ex.c ****  @endverbatim    
  28:Drivers/STM32H7xx_HAL_Driver/Src/stm32h7xx_hal_dac_ex.c ****   ******************************************************************************
  29:Drivers/STM32H7xx_HAL_Driver/Src/stm32h7xx_hal_dac_ex.c ****   * @attention
  30:Drivers/STM32H7xx_HAL_Driver/Src/stm32h7xx_hal_dac_ex.c ****   *
ARM GAS  /tmp/cc9ftHNL.s 			page 2


  31:Drivers/STM32H7xx_HAL_Driver/Src/stm32h7xx_hal_dac_ex.c ****   * <h2><center>&copy; COPYRIGHT(c) 2017 STMicroelectronics</center></h2>
  32:Drivers/STM32H7xx_HAL_Driver/Src/stm32h7xx_hal_dac_ex.c ****   *
  33:Drivers/STM32H7xx_HAL_Driver/Src/stm32h7xx_hal_dac_ex.c ****   * Redistribution and use in source and binary forms, with or without modification,
  34:Drivers/STM32H7xx_HAL_Driver/Src/stm32h7xx_hal_dac_ex.c ****   * are permitted provided that the following conditions are met:
  35:Drivers/STM32H7xx_HAL_Driver/Src/stm32h7xx_hal_dac_ex.c ****   *   1. Redistributions of source code must retain the above copyright notice,
  36:Drivers/STM32H7xx_HAL_Driver/Src/stm32h7xx_hal_dac_ex.c ****   *      this list of conditions and the following disclaimer.
  37:Drivers/STM32H7xx_HAL_Driver/Src/stm32h7xx_hal_dac_ex.c ****   *   2. Redistributions in binary form must reproduce the above copyright notice,
  38:Drivers/STM32H7xx_HAL_Driver/Src/stm32h7xx_hal_dac_ex.c ****   *      this list of conditions and the following disclaimer in the documentation
  39:Drivers/STM32H7xx_HAL_Driver/Src/stm32h7xx_hal_dac_ex.c ****   *      and/or other materials provided with the distribution.
  40:Drivers/STM32H7xx_HAL_Driver/Src/stm32h7xx_hal_dac_ex.c ****   *   3. Neither the name of STMicroelectronics nor the names of its contributors
  41:Drivers/STM32H7xx_HAL_Driver/Src/stm32h7xx_hal_dac_ex.c ****   *      may be used to endorse or promote products derived from this software
  42:Drivers/STM32H7xx_HAL_Driver/Src/stm32h7xx_hal_dac_ex.c ****   *      without specific prior written permission.
  43:Drivers/STM32H7xx_HAL_Driver/Src/stm32h7xx_hal_dac_ex.c ****   *
  44:Drivers/STM32H7xx_HAL_Driver/Src/stm32h7xx_hal_dac_ex.c ****   * THIS SOFTWARE IS PROVIDED BY THE COPYRIGHT HOLDERS AND CONTRIBUTORS "AS IS"
  45:Drivers/STM32H7xx_HAL_Driver/Src/stm32h7xx_hal_dac_ex.c ****   * AND ANY EXPRESS OR IMPLIED WARRANTIES, INCLUDING, BUT NOT LIMITED TO, THE
  46:Drivers/STM32H7xx_HAL_Driver/Src/stm32h7xx_hal_dac_ex.c ****   * IMPLIED WARRANTIES OF MERCHANTABILITY AND FITNESS FOR A PARTICULAR PURPOSE ARE
  47:Drivers/STM32H7xx_HAL_Driver/Src/stm32h7xx_hal_dac_ex.c ****   * DISCLAIMED. IN NO EVENT SHALL THE COPYRIGHT HOLDER OR CONTRIBUTORS BE LIABLE
  48:Drivers/STM32H7xx_HAL_Driver/Src/stm32h7xx_hal_dac_ex.c ****   * FOR ANY DIRECT, INDIRECT, INCIDENTAL, SPECIAL, EXEMPLARY, OR CONSEQUENTIAL
  49:Drivers/STM32H7xx_HAL_Driver/Src/stm32h7xx_hal_dac_ex.c ****   * DAMAGES (INCLUDING, BUT NOT LIMITED TO, PROCUREMENT OF SUBSTITUTE GOODS OR
  50:Drivers/STM32H7xx_HAL_Driver/Src/stm32h7xx_hal_dac_ex.c ****   * SERVICES; LOSS OF USE, DATA, OR PROFITS; OR BUSINESS INTERRUPTION) HOWEVER
  51:Drivers/STM32H7xx_HAL_Driver/Src/stm32h7xx_hal_dac_ex.c ****   * CAUSED AND ON ANY THEORY OF LIABILITY, WHETHER IN CONTRACT, STRICT LIABILITY,
  52:Drivers/STM32H7xx_HAL_Driver/Src/stm32h7xx_hal_dac_ex.c ****   * OR TORT (INCLUDING NEGLIGENCE OR OTHERWISE) ARISING IN ANY WAY OUT OF THE USE
  53:Drivers/STM32H7xx_HAL_Driver/Src/stm32h7xx_hal_dac_ex.c ****   * OF THIS SOFTWARE, EVEN IF ADVISED OF THE POSSIBILITY OF SUCH DAMAGE.
  54:Drivers/STM32H7xx_HAL_Driver/Src/stm32h7xx_hal_dac_ex.c ****   *
  55:Drivers/STM32H7xx_HAL_Driver/Src/stm32h7xx_hal_dac_ex.c ****   ******************************************************************************
  56:Drivers/STM32H7xx_HAL_Driver/Src/stm32h7xx_hal_dac_ex.c ****   */ 
  57:Drivers/STM32H7xx_HAL_Driver/Src/stm32h7xx_hal_dac_ex.c **** 
  58:Drivers/STM32H7xx_HAL_Driver/Src/stm32h7xx_hal_dac_ex.c **** 
  59:Drivers/STM32H7xx_HAL_Driver/Src/stm32h7xx_hal_dac_ex.c **** /* Includes ------------------------------------------------------------------*/
  60:Drivers/STM32H7xx_HAL_Driver/Src/stm32h7xx_hal_dac_ex.c **** #include "stm32h7xx_hal.h"
  61:Drivers/STM32H7xx_HAL_Driver/Src/stm32h7xx_hal_dac_ex.c **** 
  62:Drivers/STM32H7xx_HAL_Driver/Src/stm32h7xx_hal_dac_ex.c **** /** @addtogroup STM32H7xx_HAL_Driver
  63:Drivers/STM32H7xx_HAL_Driver/Src/stm32h7xx_hal_dac_ex.c ****   * @{
  64:Drivers/STM32H7xx_HAL_Driver/Src/stm32h7xx_hal_dac_ex.c ****   */
  65:Drivers/STM32H7xx_HAL_Driver/Src/stm32h7xx_hal_dac_ex.c **** 
  66:Drivers/STM32H7xx_HAL_Driver/Src/stm32h7xx_hal_dac_ex.c **** /** @defgroup DACEx DACEx 
  67:Drivers/STM32H7xx_HAL_Driver/Src/stm32h7xx_hal_dac_ex.c ****   * @brief DAC Extended HAL module driver
  68:Drivers/STM32H7xx_HAL_Driver/Src/stm32h7xx_hal_dac_ex.c ****   * @{
  69:Drivers/STM32H7xx_HAL_Driver/Src/stm32h7xx_hal_dac_ex.c ****   */ 
  70:Drivers/STM32H7xx_HAL_Driver/Src/stm32h7xx_hal_dac_ex.c **** 
  71:Drivers/STM32H7xx_HAL_Driver/Src/stm32h7xx_hal_dac_ex.c **** #ifdef HAL_DAC_MODULE_ENABLED
  72:Drivers/STM32H7xx_HAL_Driver/Src/stm32h7xx_hal_dac_ex.c **** 
  73:Drivers/STM32H7xx_HAL_Driver/Src/stm32h7xx_hal_dac_ex.c **** /* Private typedef -----------------------------------------------------------*/
  74:Drivers/STM32H7xx_HAL_Driver/Src/stm32h7xx_hal_dac_ex.c **** /* Private define ------------------------------------------------------------*/
  75:Drivers/STM32H7xx_HAL_Driver/Src/stm32h7xx_hal_dac_ex.c **** /* Private macro -------------------------------------------------------------*/
  76:Drivers/STM32H7xx_HAL_Driver/Src/stm32h7xx_hal_dac_ex.c **** /* Private variables ---------------------------------------------------------*/
  77:Drivers/STM32H7xx_HAL_Driver/Src/stm32h7xx_hal_dac_ex.c **** /* Private function prototypes -----------------------------------------------*/
  78:Drivers/STM32H7xx_HAL_Driver/Src/stm32h7xx_hal_dac_ex.c **** /* Private functions ---------------------------------------------------------*/
  79:Drivers/STM32H7xx_HAL_Driver/Src/stm32h7xx_hal_dac_ex.c **** /* Exported functions --------------------------------------------------------*/  
  80:Drivers/STM32H7xx_HAL_Driver/Src/stm32h7xx_hal_dac_ex.c **** /** @defgroup DACEx_Exported_Functions DACEx Exported Functions
  81:Drivers/STM32H7xx_HAL_Driver/Src/stm32h7xx_hal_dac_ex.c ****   * @{
  82:Drivers/STM32H7xx_HAL_Driver/Src/stm32h7xx_hal_dac_ex.c ****   */
  83:Drivers/STM32H7xx_HAL_Driver/Src/stm32h7xx_hal_dac_ex.c **** 
  84:Drivers/STM32H7xx_HAL_Driver/Src/stm32h7xx_hal_dac_ex.c **** /** @defgroup DACEx_Exported_Functions_Group2 IO operation functions
  85:Drivers/STM32H7xx_HAL_Driver/Src/stm32h7xx_hal_dac_ex.c ****  *  @brief    Extended IO operation functions 
  86:Drivers/STM32H7xx_HAL_Driver/Src/stm32h7xx_hal_dac_ex.c ****  *
  87:Drivers/STM32H7xx_HAL_Driver/Src/stm32h7xx_hal_dac_ex.c **** @verbatim   
ARM GAS  /tmp/cc9ftHNL.s 			page 3


  88:Drivers/STM32H7xx_HAL_Driver/Src/stm32h7xx_hal_dac_ex.c ****   ==============================================================================
  89:Drivers/STM32H7xx_HAL_Driver/Src/stm32h7xx_hal_dac_ex.c ****                  ##### Extended features functions #####
  90:Drivers/STM32H7xx_HAL_Driver/Src/stm32h7xx_hal_dac_ex.c ****   ==============================================================================  
  91:Drivers/STM32H7xx_HAL_Driver/Src/stm32h7xx_hal_dac_ex.c ****     [..]  This section provides functions allowing to:
  92:Drivers/STM32H7xx_HAL_Driver/Src/stm32h7xx_hal_dac_ex.c ****       (+) Start conversion with triangle wave generation.
  93:Drivers/STM32H7xx_HAL_Driver/Src/stm32h7xx_hal_dac_ex.c ****       (+) Start conversion with noise wave generation.
  94:Drivers/STM32H7xx_HAL_Driver/Src/stm32h7xx_hal_dac_ex.c ****       (+) Start self calibration.
  95:Drivers/STM32H7xx_HAL_Driver/Src/stm32h7xx_hal_dac_ex.c ****       (+) Set user trimming mode.
  96:Drivers/STM32H7xx_HAL_Driver/Src/stm32h7xx_hal_dac_ex.c ****       (+) Get result of dual mode conversion.
  97:Drivers/STM32H7xx_HAL_Driver/Src/stm32h7xx_hal_dac_ex.c ****                      
  98:Drivers/STM32H7xx_HAL_Driver/Src/stm32h7xx_hal_dac_ex.c **** @endverbatim
  99:Drivers/STM32H7xx_HAL_Driver/Src/stm32h7xx_hal_dac_ex.c ****   * @{
 100:Drivers/STM32H7xx_HAL_Driver/Src/stm32h7xx_hal_dac_ex.c ****   */
 101:Drivers/STM32H7xx_HAL_Driver/Src/stm32h7xx_hal_dac_ex.c **** 
 102:Drivers/STM32H7xx_HAL_Driver/Src/stm32h7xx_hal_dac_ex.c **** 
 103:Drivers/STM32H7xx_HAL_Driver/Src/stm32h7xx_hal_dac_ex.c **** 
 104:Drivers/STM32H7xx_HAL_Driver/Src/stm32h7xx_hal_dac_ex.c **** /**
 105:Drivers/STM32H7xx_HAL_Driver/Src/stm32h7xx_hal_dac_ex.c ****   * @brief  Enable or disable the selected DAC channel wave generation.
 106:Drivers/STM32H7xx_HAL_Driver/Src/stm32h7xx_hal_dac_ex.c ****   * @param  hdac: pointer to a DAC_HandleTypeDef structure that contains
 107:Drivers/STM32H7xx_HAL_Driver/Src/stm32h7xx_hal_dac_ex.c ****   *         the configuration information for the specified DAC.
 108:Drivers/STM32H7xx_HAL_Driver/Src/stm32h7xx_hal_dac_ex.c ****   * @param  Channel: The selected DAC channel. 
 109:Drivers/STM32H7xx_HAL_Driver/Src/stm32h7xx_hal_dac_ex.c ****   *          This parameter can be one of the following values:
 110:Drivers/STM32H7xx_HAL_Driver/Src/stm32h7xx_hal_dac_ex.c ****   *            @arg DAC_CHANNEL_1: DAC Channel1 selected 
 111:Drivers/STM32H7xx_HAL_Driver/Src/stm32h7xx_hal_dac_ex.c ****   *            @arg DAC_CHANNEL_2: DAC Channel2 selected
 112:Drivers/STM32H7xx_HAL_Driver/Src/stm32h7xx_hal_dac_ex.c ****   * @param  Amplitude: Select max triangle amplitude. 
 113:Drivers/STM32H7xx_HAL_Driver/Src/stm32h7xx_hal_dac_ex.c ****   *          This parameter can be one of the following values:
 114:Drivers/STM32H7xx_HAL_Driver/Src/stm32h7xx_hal_dac_ex.c ****   *            @arg DAC_TRIANGLEAMPLITUDE_1: Select max triangle amplitude of 1
 115:Drivers/STM32H7xx_HAL_Driver/Src/stm32h7xx_hal_dac_ex.c ****   *            @arg DAC_TRIANGLEAMPLITUDE_3: Select max triangle amplitude of 3
 116:Drivers/STM32H7xx_HAL_Driver/Src/stm32h7xx_hal_dac_ex.c ****   *            @arg DAC_TRIANGLEAMPLITUDE_7: Select max triangle amplitude of 7
 117:Drivers/STM32H7xx_HAL_Driver/Src/stm32h7xx_hal_dac_ex.c ****   *            @arg DAC_TRIANGLEAMPLITUDE_15: Select max triangle amplitude of 15
 118:Drivers/STM32H7xx_HAL_Driver/Src/stm32h7xx_hal_dac_ex.c ****   *            @arg DAC_TRIANGLEAMPLITUDE_31: Select max triangle amplitude of 31
 119:Drivers/STM32H7xx_HAL_Driver/Src/stm32h7xx_hal_dac_ex.c ****   *            @arg DAC_TRIANGLEAMPLITUDE_63: Select max triangle amplitude of 63
 120:Drivers/STM32H7xx_HAL_Driver/Src/stm32h7xx_hal_dac_ex.c ****   *            @arg DAC_TRIANGLEAMPLITUDE_127: Select max triangle amplitude of 127
 121:Drivers/STM32H7xx_HAL_Driver/Src/stm32h7xx_hal_dac_ex.c ****   *            @arg DAC_TRIANGLEAMPLITUDE_255: Select max triangle amplitude of 255
 122:Drivers/STM32H7xx_HAL_Driver/Src/stm32h7xx_hal_dac_ex.c ****   *            @arg DAC_TRIANGLEAMPLITUDE_511: Select max triangle amplitude of 511
 123:Drivers/STM32H7xx_HAL_Driver/Src/stm32h7xx_hal_dac_ex.c ****   *            @arg DAC_TRIANGLEAMPLITUDE_1023: Select max triangle amplitude of 1023
 124:Drivers/STM32H7xx_HAL_Driver/Src/stm32h7xx_hal_dac_ex.c ****   *            @arg DAC_TRIANGLEAMPLITUDE_2047: Select max triangle amplitude of 2047
 125:Drivers/STM32H7xx_HAL_Driver/Src/stm32h7xx_hal_dac_ex.c ****   *            @arg DAC_TRIANGLEAMPLITUDE_4095: Select max triangle amplitude of 4095              
 126:Drivers/STM32H7xx_HAL_Driver/Src/stm32h7xx_hal_dac_ex.c ****   * @retval HAL status
 127:Drivers/STM32H7xx_HAL_Driver/Src/stm32h7xx_hal_dac_ex.c ****   */
 128:Drivers/STM32H7xx_HAL_Driver/Src/stm32h7xx_hal_dac_ex.c **** HAL_StatusTypeDef HAL_DACEx_TriangleWaveGenerate(DAC_HandleTypeDef* hdac, uint32_t Channel, uint32_
 129:Drivers/STM32H7xx_HAL_Driver/Src/stm32h7xx_hal_dac_ex.c **** {  
  29              		.loc 1 129 1 view -0
  30              		.cfi_startproc
  31              		@ args = 0, pretend = 0, frame = 0
  32              		@ frame_needed = 0, uses_anonymous_args = 0
  33              		@ link register save eliminated.
 130:Drivers/STM32H7xx_HAL_Driver/Src/stm32h7xx_hal_dac_ex.c ****   /* Check the parameters */
 131:Drivers/STM32H7xx_HAL_Driver/Src/stm32h7xx_hal_dac_ex.c ****   assert_param(IS_DAC_CHANNEL(Channel));
  34              		.loc 1 131 3 view .LVU1
 132:Drivers/STM32H7xx_HAL_Driver/Src/stm32h7xx_hal_dac_ex.c ****   assert_param(IS_DAC_LFSR_UNMASK_TRIANGLE_AMPLITUDE(Amplitude));
  35              		.loc 1 132 3 view .LVU2
 133:Drivers/STM32H7xx_HAL_Driver/Src/stm32h7xx_hal_dac_ex.c ****   
 134:Drivers/STM32H7xx_HAL_Driver/Src/stm32h7xx_hal_dac_ex.c ****   /* Process locked */
 135:Drivers/STM32H7xx_HAL_Driver/Src/stm32h7xx_hal_dac_ex.c ****   __HAL_LOCK(hdac);
  36              		.loc 1 135 3 view .LVU3
  37              		.loc 1 135 3 view .LVU4
ARM GAS  /tmp/cc9ftHNL.s 			page 4


  38 0000 4379     		ldrb	r3, [r0, #5]	@ zero_extendqisi2
  39 0002 012B     		cmp	r3, #1
  40 0004 16D0     		beq	.L3
 129:Drivers/STM32H7xx_HAL_Driver/Src/stm32h7xx_hal_dac_ex.c ****   /* Check the parameters */
  41              		.loc 1 129 1 is_stmt 0 discriminator 2 view .LVU5
  42 0006 70B4     		push	{r4, r5, r6}
  43              	.LCFI0:
  44              		.cfi_def_cfa_offset 12
  45              		.cfi_offset 4, -12
  46              		.cfi_offset 5, -8
  47              		.cfi_offset 6, -4
  48              		.loc 1 135 3 is_stmt 1 discriminator 2 view .LVU6
  49 0008 0125     		movs	r5, #1
  50 000a 4571     		strb	r5, [r0, #5]
 136:Drivers/STM32H7xx_HAL_Driver/Src/stm32h7xx_hal_dac_ex.c ****   
 137:Drivers/STM32H7xx_HAL_Driver/Src/stm32h7xx_hal_dac_ex.c ****   /* Change DAC state */
 138:Drivers/STM32H7xx_HAL_Driver/Src/stm32h7xx_hal_dac_ex.c ****   hdac->State = HAL_DAC_STATE_BUSY;
  51              		.loc 1 138 3 discriminator 2 view .LVU7
  52              		.loc 1 138 15 is_stmt 0 discriminator 2 view .LVU8
  53 000c 0223     		movs	r3, #2
  54 000e 0371     		strb	r3, [r0, #4]
 139:Drivers/STM32H7xx_HAL_Driver/Src/stm32h7xx_hal_dac_ex.c ****   
 140:Drivers/STM32H7xx_HAL_Driver/Src/stm32h7xx_hal_dac_ex.c ****   /* Enable the triangle wave generation for the selected DAC channel */
 141:Drivers/STM32H7xx_HAL_Driver/Src/stm32h7xx_hal_dac_ex.c ****   MODIFY_REG(hdac->Instance->CR, ((DAC_CR_WAVE1)|(DAC_CR_MAMP1))<<Channel, (DAC_CR_WAVE1_1 | Amplit
  55              		.loc 1 141 3 is_stmt 1 discriminator 2 view .LVU9
  56 0010 0668     		ldr	r6, [r0]
  57 0012 3368     		ldr	r3, [r6]
  58 0014 4FF47C64 		mov	r4, #4032
  59 0018 8C40     		lsls	r4, r4, r1
  60 001a 23EA0403 		bic	r3, r3, r4
  61 001e 42F08002 		orr	r2, r2, #128
  62              	.LVL1:
  63              		.loc 1 141 3 is_stmt 0 discriminator 2 view .LVU10
  64 0022 8A40     		lsls	r2, r2, r1
  65 0024 1A43     		orrs	r2, r2, r3
  66 0026 3260     		str	r2, [r6]
 142:Drivers/STM32H7xx_HAL_Driver/Src/stm32h7xx_hal_dac_ex.c ****   
 143:Drivers/STM32H7xx_HAL_Driver/Src/stm32h7xx_hal_dac_ex.c ****   /* Change DAC state */
 144:Drivers/STM32H7xx_HAL_Driver/Src/stm32h7xx_hal_dac_ex.c ****   hdac->State = HAL_DAC_STATE_READY;
  67              		.loc 1 144 3 is_stmt 1 discriminator 2 view .LVU11
  68              		.loc 1 144 15 is_stmt 0 discriminator 2 view .LVU12
  69 0028 0571     		strb	r5, [r0, #4]
 145:Drivers/STM32H7xx_HAL_Driver/Src/stm32h7xx_hal_dac_ex.c ****   
 146:Drivers/STM32H7xx_HAL_Driver/Src/stm32h7xx_hal_dac_ex.c ****   /* Process unlocked */
 147:Drivers/STM32H7xx_HAL_Driver/Src/stm32h7xx_hal_dac_ex.c ****   __HAL_UNLOCK(hdac);
  70              		.loc 1 147 3 is_stmt 1 discriminator 2 view .LVU13
  71              		.loc 1 147 3 discriminator 2 view .LVU14
  72 002a 0023     		movs	r3, #0
  73 002c 4371     		strb	r3, [r0, #5]
 148:Drivers/STM32H7xx_HAL_Driver/Src/stm32h7xx_hal_dac_ex.c ****   
 149:Drivers/STM32H7xx_HAL_Driver/Src/stm32h7xx_hal_dac_ex.c ****   /* Return function status */
 150:Drivers/STM32H7xx_HAL_Driver/Src/stm32h7xx_hal_dac_ex.c ****   return HAL_OK;
  74              		.loc 1 150 3 discriminator 2 view .LVU15
  75              		.loc 1 150 10 is_stmt 0 discriminator 2 view .LVU16
  76 002e 1846     		mov	r0, r3
  77              	.LVL2:
 151:Drivers/STM32H7xx_HAL_Driver/Src/stm32h7xx_hal_dac_ex.c **** }
ARM GAS  /tmp/cc9ftHNL.s 			page 5


  78              		.loc 1 151 1 discriminator 2 view .LVU17
  79 0030 70BC     		pop	{r4, r5, r6}
  80              	.LCFI1:
  81              		.cfi_restore 6
  82              		.cfi_restore 5
  83              		.cfi_restore 4
  84              		.cfi_def_cfa_offset 0
  85 0032 7047     		bx	lr
  86              	.LVL3:
  87              	.L3:
 135:Drivers/STM32H7xx_HAL_Driver/Src/stm32h7xx_hal_dac_ex.c ****   
  88              		.loc 1 135 3 view .LVU18
  89 0034 0220     		movs	r0, #2
  90              	.LVL4:
  91              		.loc 1 151 1 view .LVU19
  92 0036 7047     		bx	lr
  93              		.cfi_endproc
  94              	.LFE137:
  96              		.section	.text.HAL_DACEx_NoiseWaveGenerate,"ax",%progbits
  97              		.align	1
  98              		.global	HAL_DACEx_NoiseWaveGenerate
  99              		.syntax unified
 100              		.thumb
 101              		.thumb_func
 102              		.fpu fpv5-d16
 104              	HAL_DACEx_NoiseWaveGenerate:
 105              	.LVL5:
 106              	.LFB138:
 152:Drivers/STM32H7xx_HAL_Driver/Src/stm32h7xx_hal_dac_ex.c **** 
 153:Drivers/STM32H7xx_HAL_Driver/Src/stm32h7xx_hal_dac_ex.c **** /**
 154:Drivers/STM32H7xx_HAL_Driver/Src/stm32h7xx_hal_dac_ex.c ****   * @brief  Enable or disable the selected DAC channel wave generation.
 155:Drivers/STM32H7xx_HAL_Driver/Src/stm32h7xx_hal_dac_ex.c ****   * @param  hdac: pointer to a DAC_HandleTypeDef structure that contains
 156:Drivers/STM32H7xx_HAL_Driver/Src/stm32h7xx_hal_dac_ex.c ****   *         the configuration information for the specified DAC. 
 157:Drivers/STM32H7xx_HAL_Driver/Src/stm32h7xx_hal_dac_ex.c ****   * @param  Channel: The selected DAC channel. 
 158:Drivers/STM32H7xx_HAL_Driver/Src/stm32h7xx_hal_dac_ex.c ****   *          This parameter can be one of the following values:
 159:Drivers/STM32H7xx_HAL_Driver/Src/stm32h7xx_hal_dac_ex.c ****   *            @arg DAC_CHANNEL_1: DAC Channel1 selected 
 160:Drivers/STM32H7xx_HAL_Driver/Src/stm32h7xx_hal_dac_ex.c ****   *            @arg DAC_CHANNEL_2: DAC Channel2 selected
 161:Drivers/STM32H7xx_HAL_Driver/Src/stm32h7xx_hal_dac_ex.c ****   * @param  Amplitude: Unmask DAC channel LFSR for noise wave generation. 
 162:Drivers/STM32H7xx_HAL_Driver/Src/stm32h7xx_hal_dac_ex.c ****   *          This parameter can be one of the following values: 
 163:Drivers/STM32H7xx_HAL_Driver/Src/stm32h7xx_hal_dac_ex.c ****   *            @arg DAC_LFSRUNMASK_BIT0: Unmask DAC channel LFSR bit0 for noise wave generation
 164:Drivers/STM32H7xx_HAL_Driver/Src/stm32h7xx_hal_dac_ex.c ****   *            @arg DAC_LFSRUNMASK_BITS1_0: Unmask DAC channel LFSR bit[1:0] for noise wave generat
 165:Drivers/STM32H7xx_HAL_Driver/Src/stm32h7xx_hal_dac_ex.c ****   *            @arg DAC_LFSRUNMASK_BITS2_0: Unmask DAC channel LFSR bit[2:0] for noise wave generat
 166:Drivers/STM32H7xx_HAL_Driver/Src/stm32h7xx_hal_dac_ex.c ****   *            @arg DAC_LFSRUNMASK_BITS3_0: Unmask DAC channel LFSR bit[3:0] for noise wave generat
 167:Drivers/STM32H7xx_HAL_Driver/Src/stm32h7xx_hal_dac_ex.c ****   *            @arg DAC_LFSRUNMASK_BITS4_0: Unmask DAC channel LFSR bit[4:0] for noise wave generat
 168:Drivers/STM32H7xx_HAL_Driver/Src/stm32h7xx_hal_dac_ex.c ****   *            @arg DAC_LFSRUNMASK_BITS5_0: Unmask DAC channel LFSR bit[5:0] for noise wave generat
 169:Drivers/STM32H7xx_HAL_Driver/Src/stm32h7xx_hal_dac_ex.c ****   *            @arg DAC_LFSRUNMASK_BITS6_0: Unmask DAC channel LFSR bit[6:0] for noise wave generat
 170:Drivers/STM32H7xx_HAL_Driver/Src/stm32h7xx_hal_dac_ex.c ****   *            @arg DAC_LFSRUNMASK_BITS7_0: Unmask DAC channel LFSR bit[7:0] for noise wave generat
 171:Drivers/STM32H7xx_HAL_Driver/Src/stm32h7xx_hal_dac_ex.c ****   *            @arg DAC_LFSRUNMASK_BITS8_0: Unmask DAC channel LFSR bit[8:0] for noise wave generat
 172:Drivers/STM32H7xx_HAL_Driver/Src/stm32h7xx_hal_dac_ex.c ****   *            @arg DAC_LFSRUNMASK_BITS9_0: Unmask DAC channel LFSR bit[9:0] for noise wave generat
 173:Drivers/STM32H7xx_HAL_Driver/Src/stm32h7xx_hal_dac_ex.c ****   *            @arg DAC_LFSRUNMASK_BITS10_0: Unmask DAC channel LFSR bit[10:0] for noise wave gener
 174:Drivers/STM32H7xx_HAL_Driver/Src/stm32h7xx_hal_dac_ex.c ****   *            @arg DAC_LFSRUNMASK_BITS11_0: Unmask DAC channel LFSR bit[11:0] for noise wave gener
 175:Drivers/STM32H7xx_HAL_Driver/Src/stm32h7xx_hal_dac_ex.c ****   * @retval HAL status
 176:Drivers/STM32H7xx_HAL_Driver/Src/stm32h7xx_hal_dac_ex.c ****   */
 177:Drivers/STM32H7xx_HAL_Driver/Src/stm32h7xx_hal_dac_ex.c **** HAL_StatusTypeDef HAL_DACEx_NoiseWaveGenerate(DAC_HandleTypeDef* hdac, uint32_t Channel, uint32_t A
 178:Drivers/STM32H7xx_HAL_Driver/Src/stm32h7xx_hal_dac_ex.c **** {   
 107              		.loc 1 178 1 is_stmt 1 view -0
 108              		.cfi_startproc
ARM GAS  /tmp/cc9ftHNL.s 			page 6


 109              		@ args = 0, pretend = 0, frame = 0
 110              		@ frame_needed = 0, uses_anonymous_args = 0
 111              		@ link register save eliminated.
 179:Drivers/STM32H7xx_HAL_Driver/Src/stm32h7xx_hal_dac_ex.c ****   /* Check the parameters */
 180:Drivers/STM32H7xx_HAL_Driver/Src/stm32h7xx_hal_dac_ex.c ****   assert_param(IS_DAC_CHANNEL(Channel));
 112              		.loc 1 180 3 view .LVU21
 181:Drivers/STM32H7xx_HAL_Driver/Src/stm32h7xx_hal_dac_ex.c ****   assert_param(IS_DAC_LFSR_UNMASK_TRIANGLE_AMPLITUDE(Amplitude));
 113              		.loc 1 181 3 view .LVU22
 182:Drivers/STM32H7xx_HAL_Driver/Src/stm32h7xx_hal_dac_ex.c ****   
 183:Drivers/STM32H7xx_HAL_Driver/Src/stm32h7xx_hal_dac_ex.c ****   /* Process locked */
 184:Drivers/STM32H7xx_HAL_Driver/Src/stm32h7xx_hal_dac_ex.c ****   __HAL_LOCK(hdac);
 114              		.loc 1 184 3 view .LVU23
 115              		.loc 1 184 3 view .LVU24
 116 0000 4379     		ldrb	r3, [r0, #5]	@ zero_extendqisi2
 117 0002 012B     		cmp	r3, #1
 118 0004 16D0     		beq	.L10
 178:Drivers/STM32H7xx_HAL_Driver/Src/stm32h7xx_hal_dac_ex.c ****   /* Check the parameters */
 119              		.loc 1 178 1 is_stmt 0 discriminator 2 view .LVU25
 120 0006 70B4     		push	{r4, r5, r6}
 121              	.LCFI2:
 122              		.cfi_def_cfa_offset 12
 123              		.cfi_offset 4, -12
 124              		.cfi_offset 5, -8
 125              		.cfi_offset 6, -4
 126              		.loc 1 184 3 is_stmt 1 discriminator 2 view .LVU26
 127 0008 0125     		movs	r5, #1
 128 000a 4571     		strb	r5, [r0, #5]
 185:Drivers/STM32H7xx_HAL_Driver/Src/stm32h7xx_hal_dac_ex.c ****   
 186:Drivers/STM32H7xx_HAL_Driver/Src/stm32h7xx_hal_dac_ex.c ****   /* Change DAC state */
 187:Drivers/STM32H7xx_HAL_Driver/Src/stm32h7xx_hal_dac_ex.c ****   hdac->State = HAL_DAC_STATE_BUSY;
 129              		.loc 1 187 3 discriminator 2 view .LVU27
 130              		.loc 1 187 15 is_stmt 0 discriminator 2 view .LVU28
 131 000c 0223     		movs	r3, #2
 132 000e 0371     		strb	r3, [r0, #4]
 188:Drivers/STM32H7xx_HAL_Driver/Src/stm32h7xx_hal_dac_ex.c ****      
 189:Drivers/STM32H7xx_HAL_Driver/Src/stm32h7xx_hal_dac_ex.c ****   /* Enable the noise wave generation for the selected DAC channel */
 190:Drivers/STM32H7xx_HAL_Driver/Src/stm32h7xx_hal_dac_ex.c ****   MODIFY_REG(hdac->Instance->CR, ((DAC_CR_WAVE1)|(DAC_CR_MAMP1))<<Channel, (DAC_CR_WAVE1_0 | Amplit
 133              		.loc 1 190 3 is_stmt 1 discriminator 2 view .LVU29
 134 0010 0668     		ldr	r6, [r0]
 135 0012 3368     		ldr	r3, [r6]
 136 0014 4FF47C64 		mov	r4, #4032
 137 0018 8C40     		lsls	r4, r4, r1
 138 001a 23EA0403 		bic	r3, r3, r4
 139 001e 42F04002 		orr	r2, r2, #64
 140              	.LVL6:
 141              		.loc 1 190 3 is_stmt 0 discriminator 2 view .LVU30
 142 0022 8A40     		lsls	r2, r2, r1
 143 0024 1A43     		orrs	r2, r2, r3
 144 0026 3260     		str	r2, [r6]
 191:Drivers/STM32H7xx_HAL_Driver/Src/stm32h7xx_hal_dac_ex.c ****   
 192:Drivers/STM32H7xx_HAL_Driver/Src/stm32h7xx_hal_dac_ex.c ****   /* Change DAC state */
 193:Drivers/STM32H7xx_HAL_Driver/Src/stm32h7xx_hal_dac_ex.c ****   hdac->State = HAL_DAC_STATE_READY;
 145              		.loc 1 193 3 is_stmt 1 discriminator 2 view .LVU31
 146              		.loc 1 193 15 is_stmt 0 discriminator 2 view .LVU32
 147 0028 0571     		strb	r5, [r0, #4]
 194:Drivers/STM32H7xx_HAL_Driver/Src/stm32h7xx_hal_dac_ex.c ****   
 195:Drivers/STM32H7xx_HAL_Driver/Src/stm32h7xx_hal_dac_ex.c ****   /* Process unlocked */
ARM GAS  /tmp/cc9ftHNL.s 			page 7


 196:Drivers/STM32H7xx_HAL_Driver/Src/stm32h7xx_hal_dac_ex.c ****   __HAL_UNLOCK(hdac);
 148              		.loc 1 196 3 is_stmt 1 discriminator 2 view .LVU33
 149              		.loc 1 196 3 discriminator 2 view .LVU34
 150 002a 0023     		movs	r3, #0
 151 002c 4371     		strb	r3, [r0, #5]
 197:Drivers/STM32H7xx_HAL_Driver/Src/stm32h7xx_hal_dac_ex.c ****   
 198:Drivers/STM32H7xx_HAL_Driver/Src/stm32h7xx_hal_dac_ex.c ****   /* Return function status */
 199:Drivers/STM32H7xx_HAL_Driver/Src/stm32h7xx_hal_dac_ex.c ****   return HAL_OK;
 152              		.loc 1 199 3 discriminator 2 view .LVU35
 153              		.loc 1 199 10 is_stmt 0 discriminator 2 view .LVU36
 154 002e 1846     		mov	r0, r3
 155              	.LVL7:
 200:Drivers/STM32H7xx_HAL_Driver/Src/stm32h7xx_hal_dac_ex.c **** }
 156              		.loc 1 200 1 discriminator 2 view .LVU37
 157 0030 70BC     		pop	{r4, r5, r6}
 158              	.LCFI3:
 159              		.cfi_restore 6
 160              		.cfi_restore 5
 161              		.cfi_restore 4
 162              		.cfi_def_cfa_offset 0
 163 0032 7047     		bx	lr
 164              	.LVL8:
 165              	.L10:
 184:Drivers/STM32H7xx_HAL_Driver/Src/stm32h7xx_hal_dac_ex.c ****   
 166              		.loc 1 184 3 view .LVU38
 167 0034 0220     		movs	r0, #2
 168              	.LVL9:
 169              		.loc 1 200 1 view .LVU39
 170 0036 7047     		bx	lr
 171              		.cfi_endproc
 172              	.LFE138:
 174              		.section	.text.HAL_DACEx_DualSetValue,"ax",%progbits
 175              		.align	1
 176              		.global	HAL_DACEx_DualSetValue
 177              		.syntax unified
 178              		.thumb
 179              		.thumb_func
 180              		.fpu fpv5-d16
 182              	HAL_DACEx_DualSetValue:
 183              	.LVL10:
 184              	.LFB139:
 201:Drivers/STM32H7xx_HAL_Driver/Src/stm32h7xx_hal_dac_ex.c **** 
 202:Drivers/STM32H7xx_HAL_Driver/Src/stm32h7xx_hal_dac_ex.c **** 
 203:Drivers/STM32H7xx_HAL_Driver/Src/stm32h7xx_hal_dac_ex.c **** 
 204:Drivers/STM32H7xx_HAL_Driver/Src/stm32h7xx_hal_dac_ex.c **** /**
 205:Drivers/STM32H7xx_HAL_Driver/Src/stm32h7xx_hal_dac_ex.c ****   * @brief  Set the specified data holding register value for dual DAC channel.
 206:Drivers/STM32H7xx_HAL_Driver/Src/stm32h7xx_hal_dac_ex.c ****   * @param  hdac: pointer to a DAC_HandleTypeDef structure that contains
 207:Drivers/STM32H7xx_HAL_Driver/Src/stm32h7xx_hal_dac_ex.c ****   *               the configuration information for the specified DAC.
 208:Drivers/STM32H7xx_HAL_Driver/Src/stm32h7xx_hal_dac_ex.c ****   * @param  Alignment: Specifies the data alignment for dual channel DAC.
 209:Drivers/STM32H7xx_HAL_Driver/Src/stm32h7xx_hal_dac_ex.c ****   *          This parameter can be one of the following values:
 210:Drivers/STM32H7xx_HAL_Driver/Src/stm32h7xx_hal_dac_ex.c ****   *            DAC_ALIGN_8B_R: 8bit right data alignment selected
 211:Drivers/STM32H7xx_HAL_Driver/Src/stm32h7xx_hal_dac_ex.c ****   *            DAC_ALIGN_12B_L: 12bit left data alignment selected
 212:Drivers/STM32H7xx_HAL_Driver/Src/stm32h7xx_hal_dac_ex.c ****   *            DAC_ALIGN_12B_R: 12bit right data alignment selected
 213:Drivers/STM32H7xx_HAL_Driver/Src/stm32h7xx_hal_dac_ex.c ****   * @param  Data1: Data for DAC Channel2 to be loaded in the selected data holding register.
 214:Drivers/STM32H7xx_HAL_Driver/Src/stm32h7xx_hal_dac_ex.c ****   * @param  Data2: Data for DAC Channel1 to be loaded in the selected data  holding register.
 215:Drivers/STM32H7xx_HAL_Driver/Src/stm32h7xx_hal_dac_ex.c ****   * @note   In dual mode, a unique register access is required to write in both
 216:Drivers/STM32H7xx_HAL_Driver/Src/stm32h7xx_hal_dac_ex.c ****   *          DAC channels at the same time.
ARM GAS  /tmp/cc9ftHNL.s 			page 8


 217:Drivers/STM32H7xx_HAL_Driver/Src/stm32h7xx_hal_dac_ex.c ****   * @retval HAL status
 218:Drivers/STM32H7xx_HAL_Driver/Src/stm32h7xx_hal_dac_ex.c ****   */
 219:Drivers/STM32H7xx_HAL_Driver/Src/stm32h7xx_hal_dac_ex.c **** HAL_StatusTypeDef HAL_DACEx_DualSetValue(DAC_HandleTypeDef* hdac, uint32_t Alignment, uint32_t Data
 220:Drivers/STM32H7xx_HAL_Driver/Src/stm32h7xx_hal_dac_ex.c **** {  
 185              		.loc 1 220 1 is_stmt 1 view -0
 186              		.cfi_startproc
 187              		@ args = 0, pretend = 0, frame = 0
 188              		@ frame_needed = 0, uses_anonymous_args = 0
 189              		@ link register save eliminated.
 221:Drivers/STM32H7xx_HAL_Driver/Src/stm32h7xx_hal_dac_ex.c ****   uint32_t data = 0, tmp = 0;
 190              		.loc 1 221 3 view .LVU41
 222:Drivers/STM32H7xx_HAL_Driver/Src/stm32h7xx_hal_dac_ex.c ****   
 223:Drivers/STM32H7xx_HAL_Driver/Src/stm32h7xx_hal_dac_ex.c ****   /* Check the parameters */
 224:Drivers/STM32H7xx_HAL_Driver/Src/stm32h7xx_hal_dac_ex.c ****   assert_param(IS_DAC_ALIGN(Alignment));
 191              		.loc 1 224 3 view .LVU42
 225:Drivers/STM32H7xx_HAL_Driver/Src/stm32h7xx_hal_dac_ex.c ****   assert_param(IS_DAC_DATA(Data1));
 192              		.loc 1 225 3 view .LVU43
 226:Drivers/STM32H7xx_HAL_Driver/Src/stm32h7xx_hal_dac_ex.c ****   assert_param(IS_DAC_DATA(Data2));
 193              		.loc 1 226 3 view .LVU44
 227:Drivers/STM32H7xx_HAL_Driver/Src/stm32h7xx_hal_dac_ex.c ****   
 228:Drivers/STM32H7xx_HAL_Driver/Src/stm32h7xx_hal_dac_ex.c ****   /* Calculate and set dual DAC data holding register value */
 229:Drivers/STM32H7xx_HAL_Driver/Src/stm32h7xx_hal_dac_ex.c ****   if (Alignment == DAC_ALIGN_8B_R)
 194              		.loc 1 229 3 view .LVU45
 195              		.loc 1 229 6 is_stmt 0 view .LVU46
 196 0000 0829     		cmp	r1, #8
 197 0002 06D0     		beq	.L18
 230:Drivers/STM32H7xx_HAL_Driver/Src/stm32h7xx_hal_dac_ex.c ****   {
 231:Drivers/STM32H7xx_HAL_Driver/Src/stm32h7xx_hal_dac_ex.c ****     data = ((uint32_t)Data2 << 8) | Data1; 
 232:Drivers/STM32H7xx_HAL_Driver/Src/stm32h7xx_hal_dac_ex.c ****   }
 233:Drivers/STM32H7xx_HAL_Driver/Src/stm32h7xx_hal_dac_ex.c ****   else
 234:Drivers/STM32H7xx_HAL_Driver/Src/stm32h7xx_hal_dac_ex.c ****   {
 235:Drivers/STM32H7xx_HAL_Driver/Src/stm32h7xx_hal_dac_ex.c ****     data = ((uint32_t)Data2 << 16) | Data1;
 198              		.loc 1 235 5 is_stmt 1 view .LVU47
 199              		.loc 1 235 10 is_stmt 0 view .LVU48
 200 0004 42EA0342 		orr	r2, r2, r3, lsl #16
 201              	.LVL11:
 202              	.L17:
 236:Drivers/STM32H7xx_HAL_Driver/Src/stm32h7xx_hal_dac_ex.c ****   }
 237:Drivers/STM32H7xx_HAL_Driver/Src/stm32h7xx_hal_dac_ex.c ****   
 238:Drivers/STM32H7xx_HAL_Driver/Src/stm32h7xx_hal_dac_ex.c ****   tmp = (uint32_t)hdac->Instance;
 203              		.loc 1 238 3 is_stmt 1 view .LVU49
 204              		.loc 1 238 23 is_stmt 0 view .LVU50
 205 0008 0368     		ldr	r3, [r0]
 206              	.LVL12:
 239:Drivers/STM32H7xx_HAL_Driver/Src/stm32h7xx_hal_dac_ex.c ****   tmp += DAC_DHR12RD_ALIGNMENT(Alignment);
 207              		.loc 1 239 3 is_stmt 1 view .LVU51
 208              		.loc 1 239 7 is_stmt 0 view .LVU52
 209 000a 1944     		add	r1, r1, r3
 210              	.LVL13:
 240:Drivers/STM32H7xx_HAL_Driver/Src/stm32h7xx_hal_dac_ex.c **** 
 241:Drivers/STM32H7xx_HAL_Driver/Src/stm32h7xx_hal_dac_ex.c ****   /* Set the dual DAC selected data holding register */
 242:Drivers/STM32H7xx_HAL_Driver/Src/stm32h7xx_hal_dac_ex.c ****   *(__IO uint32_t *)tmp = data;
 211              		.loc 1 242 3 is_stmt 1 view .LVU53
 212              		.loc 1 242 25 is_stmt 0 view .LVU54
 213 000c 0A62     		str	r2, [r1, #32]
 243:Drivers/STM32H7xx_HAL_Driver/Src/stm32h7xx_hal_dac_ex.c ****   
 244:Drivers/STM32H7xx_HAL_Driver/Src/stm32h7xx_hal_dac_ex.c ****   /* Return function status */
ARM GAS  /tmp/cc9ftHNL.s 			page 9


 245:Drivers/STM32H7xx_HAL_Driver/Src/stm32h7xx_hal_dac_ex.c ****   return HAL_OK;
 214              		.loc 1 245 3 is_stmt 1 view .LVU55
 246:Drivers/STM32H7xx_HAL_Driver/Src/stm32h7xx_hal_dac_ex.c **** }
 215              		.loc 1 246 1 is_stmt 0 view .LVU56
 216 000e 0020     		movs	r0, #0
 217              	.LVL14:
 218              		.loc 1 246 1 view .LVU57
 219 0010 7047     		bx	lr
 220              	.LVL15:
 221              	.L18:
 231:Drivers/STM32H7xx_HAL_Driver/Src/stm32h7xx_hal_dac_ex.c ****   }
 222              		.loc 1 231 5 is_stmt 1 view .LVU58
 231:Drivers/STM32H7xx_HAL_Driver/Src/stm32h7xx_hal_dac_ex.c ****   }
 223              		.loc 1 231 10 is_stmt 0 view .LVU59
 224 0012 42EA0322 		orr	r2, r2, r3, lsl #8
 225              	.LVL16:
 231:Drivers/STM32H7xx_HAL_Driver/Src/stm32h7xx_hal_dac_ex.c ****   }
 226              		.loc 1 231 10 view .LVU60
 227 0016 F7E7     		b	.L17
 228              		.cfi_endproc
 229              	.LFE139:
 231              		.section	.text.HAL_DACEx_ConvCpltCallbackCh2,"ax",%progbits
 232              		.align	1
 233              		.weak	HAL_DACEx_ConvCpltCallbackCh2
 234              		.syntax unified
 235              		.thumb
 236              		.thumb_func
 237              		.fpu fpv5-d16
 239              	HAL_DACEx_ConvCpltCallbackCh2:
 240              	.LVL17:
 241              	.LFB140:
 247:Drivers/STM32H7xx_HAL_Driver/Src/stm32h7xx_hal_dac_ex.c **** 
 248:Drivers/STM32H7xx_HAL_Driver/Src/stm32h7xx_hal_dac_ex.c **** /**
 249:Drivers/STM32H7xx_HAL_Driver/Src/stm32h7xx_hal_dac_ex.c ****   * @brief  Conversion complete callback in non-blocking mode for Channel2. 
 250:Drivers/STM32H7xx_HAL_Driver/Src/stm32h7xx_hal_dac_ex.c ****   * @param  hdac: pointer to a DAC_HandleTypeDef structure that contains
 251:Drivers/STM32H7xx_HAL_Driver/Src/stm32h7xx_hal_dac_ex.c ****   *         the configuration information for the specified DAC.
 252:Drivers/STM32H7xx_HAL_Driver/Src/stm32h7xx_hal_dac_ex.c ****   * @retval None
 253:Drivers/STM32H7xx_HAL_Driver/Src/stm32h7xx_hal_dac_ex.c ****   */
 254:Drivers/STM32H7xx_HAL_Driver/Src/stm32h7xx_hal_dac_ex.c **** __weak void HAL_DACEx_ConvCpltCallbackCh2(DAC_HandleTypeDef* hdac)
 255:Drivers/STM32H7xx_HAL_Driver/Src/stm32h7xx_hal_dac_ex.c **** {
 242              		.loc 1 255 1 is_stmt 1 view -0
 243              		.cfi_startproc
 244              		@ args = 0, pretend = 0, frame = 0
 245              		@ frame_needed = 0, uses_anonymous_args = 0
 246              		@ link register save eliminated.
 256:Drivers/STM32H7xx_HAL_Driver/Src/stm32h7xx_hal_dac_ex.c ****   /* Prevent unused argument(s) compilation warning */
 257:Drivers/STM32H7xx_HAL_Driver/Src/stm32h7xx_hal_dac_ex.c ****   UNUSED(hdac);
 247              		.loc 1 257 3 view .LVU62
 258:Drivers/STM32H7xx_HAL_Driver/Src/stm32h7xx_hal_dac_ex.c **** 
 259:Drivers/STM32H7xx_HAL_Driver/Src/stm32h7xx_hal_dac_ex.c ****   /* NOTE : This function should not be modified, when the callback is needed,
 260:Drivers/STM32H7xx_HAL_Driver/Src/stm32h7xx_hal_dac_ex.c ****             the HAL_DACEx_ConvCpltCallbackCh2 could be implemented in the user file
 261:Drivers/STM32H7xx_HAL_Driver/Src/stm32h7xx_hal_dac_ex.c ****    */
 262:Drivers/STM32H7xx_HAL_Driver/Src/stm32h7xx_hal_dac_ex.c **** }
 248              		.loc 1 262 1 is_stmt 0 view .LVU63
 249 0000 7047     		bx	lr
 250              		.cfi_endproc
 251              	.LFE140:
ARM GAS  /tmp/cc9ftHNL.s 			page 10


 253              		.section	.text.HAL_DACEx_ConvHalfCpltCallbackCh2,"ax",%progbits
 254              		.align	1
 255              		.weak	HAL_DACEx_ConvHalfCpltCallbackCh2
 256              		.syntax unified
 257              		.thumb
 258              		.thumb_func
 259              		.fpu fpv5-d16
 261              	HAL_DACEx_ConvHalfCpltCallbackCh2:
 262              	.LVL18:
 263              	.LFB141:
 263:Drivers/STM32H7xx_HAL_Driver/Src/stm32h7xx_hal_dac_ex.c **** 
 264:Drivers/STM32H7xx_HAL_Driver/Src/stm32h7xx_hal_dac_ex.c **** /**
 265:Drivers/STM32H7xx_HAL_Driver/Src/stm32h7xx_hal_dac_ex.c ****   * @brief  Conversion half DMA transfer callback in non-blocking mode for Channel2. 
 266:Drivers/STM32H7xx_HAL_Driver/Src/stm32h7xx_hal_dac_ex.c ****   * @param  hdac: pointer to a DAC_HandleTypeDef structure that contains
 267:Drivers/STM32H7xx_HAL_Driver/Src/stm32h7xx_hal_dac_ex.c ****   *         the configuration information for the specified DAC.
 268:Drivers/STM32H7xx_HAL_Driver/Src/stm32h7xx_hal_dac_ex.c ****   * @retval None
 269:Drivers/STM32H7xx_HAL_Driver/Src/stm32h7xx_hal_dac_ex.c ****   */
 270:Drivers/STM32H7xx_HAL_Driver/Src/stm32h7xx_hal_dac_ex.c **** __weak void HAL_DACEx_ConvHalfCpltCallbackCh2(DAC_HandleTypeDef* hdac)
 271:Drivers/STM32H7xx_HAL_Driver/Src/stm32h7xx_hal_dac_ex.c **** {
 264              		.loc 1 271 1 is_stmt 1 view -0
 265              		.cfi_startproc
 266              		@ args = 0, pretend = 0, frame = 0
 267              		@ frame_needed = 0, uses_anonymous_args = 0
 268              		@ link register save eliminated.
 272:Drivers/STM32H7xx_HAL_Driver/Src/stm32h7xx_hal_dac_ex.c ****   /* Prevent unused argument(s) compilation warning */
 273:Drivers/STM32H7xx_HAL_Driver/Src/stm32h7xx_hal_dac_ex.c ****   UNUSED(hdac);
 269              		.loc 1 273 3 view .LVU65
 274:Drivers/STM32H7xx_HAL_Driver/Src/stm32h7xx_hal_dac_ex.c **** 
 275:Drivers/STM32H7xx_HAL_Driver/Src/stm32h7xx_hal_dac_ex.c ****   /* NOTE : This function should not be modified, when the callback is needed,
 276:Drivers/STM32H7xx_HAL_Driver/Src/stm32h7xx_hal_dac_ex.c ****             the HAL_DACEx_ConvHalfCpltCallbackCh2 could be implemented in the user file
 277:Drivers/STM32H7xx_HAL_Driver/Src/stm32h7xx_hal_dac_ex.c ****    */
 278:Drivers/STM32H7xx_HAL_Driver/Src/stm32h7xx_hal_dac_ex.c **** }
 270              		.loc 1 278 1 is_stmt 0 view .LVU66
 271 0000 7047     		bx	lr
 272              		.cfi_endproc
 273              	.LFE141:
 275              		.section	.text.HAL_DACEx_ErrorCallbackCh2,"ax",%progbits
 276              		.align	1
 277              		.weak	HAL_DACEx_ErrorCallbackCh2
 278              		.syntax unified
 279              		.thumb
 280              		.thumb_func
 281              		.fpu fpv5-d16
 283              	HAL_DACEx_ErrorCallbackCh2:
 284              	.LVL19:
 285              	.LFB142:
 279:Drivers/STM32H7xx_HAL_Driver/Src/stm32h7xx_hal_dac_ex.c **** 
 280:Drivers/STM32H7xx_HAL_Driver/Src/stm32h7xx_hal_dac_ex.c **** /**
 281:Drivers/STM32H7xx_HAL_Driver/Src/stm32h7xx_hal_dac_ex.c ****   * @brief  Error DAC callback for Channel2.
 282:Drivers/STM32H7xx_HAL_Driver/Src/stm32h7xx_hal_dac_ex.c ****   * @param  hdac: pointer to a DAC_HandleTypeDef structure that contains
 283:Drivers/STM32H7xx_HAL_Driver/Src/stm32h7xx_hal_dac_ex.c ****   *         the configuration information for the specified DAC.
 284:Drivers/STM32H7xx_HAL_Driver/Src/stm32h7xx_hal_dac_ex.c ****   * @retval None
 285:Drivers/STM32H7xx_HAL_Driver/Src/stm32h7xx_hal_dac_ex.c ****   */
 286:Drivers/STM32H7xx_HAL_Driver/Src/stm32h7xx_hal_dac_ex.c **** __weak void HAL_DACEx_ErrorCallbackCh2(DAC_HandleTypeDef *hdac)
 287:Drivers/STM32H7xx_HAL_Driver/Src/stm32h7xx_hal_dac_ex.c **** {
 286              		.loc 1 287 1 is_stmt 1 view -0
 287              		.cfi_startproc
ARM GAS  /tmp/cc9ftHNL.s 			page 11


 288              		@ args = 0, pretend = 0, frame = 0
 289              		@ frame_needed = 0, uses_anonymous_args = 0
 290              		@ link register save eliminated.
 288:Drivers/STM32H7xx_HAL_Driver/Src/stm32h7xx_hal_dac_ex.c ****   /* Prevent unused argument(s) compilation warning */
 289:Drivers/STM32H7xx_HAL_Driver/Src/stm32h7xx_hal_dac_ex.c ****   UNUSED(hdac);
 291              		.loc 1 289 3 view .LVU68
 290:Drivers/STM32H7xx_HAL_Driver/Src/stm32h7xx_hal_dac_ex.c **** 
 291:Drivers/STM32H7xx_HAL_Driver/Src/stm32h7xx_hal_dac_ex.c ****   /* NOTE : This function should not be modified, when the callback is needed,
 292:Drivers/STM32H7xx_HAL_Driver/Src/stm32h7xx_hal_dac_ex.c ****             the HAL_DACEx_ErrorCallbackCh2 could be implemented in the user file
 293:Drivers/STM32H7xx_HAL_Driver/Src/stm32h7xx_hal_dac_ex.c ****    */
 294:Drivers/STM32H7xx_HAL_Driver/Src/stm32h7xx_hal_dac_ex.c **** }
 292              		.loc 1 294 1 is_stmt 0 view .LVU69
 293 0000 7047     		bx	lr
 294              		.cfi_endproc
 295              	.LFE142:
 297              		.section	.text.HAL_DACEx_DMAUnderrunCallbackCh2,"ax",%progbits
 298              		.align	1
 299              		.weak	HAL_DACEx_DMAUnderrunCallbackCh2
 300              		.syntax unified
 301              		.thumb
 302              		.thumb_func
 303              		.fpu fpv5-d16
 305              	HAL_DACEx_DMAUnderrunCallbackCh2:
 306              	.LVL20:
 307              	.LFB143:
 295:Drivers/STM32H7xx_HAL_Driver/Src/stm32h7xx_hal_dac_ex.c **** 
 296:Drivers/STM32H7xx_HAL_Driver/Src/stm32h7xx_hal_dac_ex.c **** /**
 297:Drivers/STM32H7xx_HAL_Driver/Src/stm32h7xx_hal_dac_ex.c ****   * @brief  DMA underrun DAC callback for channel2.
 298:Drivers/STM32H7xx_HAL_Driver/Src/stm32h7xx_hal_dac_ex.c ****   * @param  hdac: pointer to a DAC_HandleTypeDef structure that contains
 299:Drivers/STM32H7xx_HAL_Driver/Src/stm32h7xx_hal_dac_ex.c ****   *         the configuration information for the specified DAC.
 300:Drivers/STM32H7xx_HAL_Driver/Src/stm32h7xx_hal_dac_ex.c ****   * @retval None
 301:Drivers/STM32H7xx_HAL_Driver/Src/stm32h7xx_hal_dac_ex.c ****   */
 302:Drivers/STM32H7xx_HAL_Driver/Src/stm32h7xx_hal_dac_ex.c **** __weak void HAL_DACEx_DMAUnderrunCallbackCh2(DAC_HandleTypeDef *hdac)
 303:Drivers/STM32H7xx_HAL_Driver/Src/stm32h7xx_hal_dac_ex.c **** {
 308              		.loc 1 303 1 is_stmt 1 view -0
 309              		.cfi_startproc
 310              		@ args = 0, pretend = 0, frame = 0
 311              		@ frame_needed = 0, uses_anonymous_args = 0
 312              		@ link register save eliminated.
 304:Drivers/STM32H7xx_HAL_Driver/Src/stm32h7xx_hal_dac_ex.c ****   /* Prevent unused argument(s) compilation warning */
 305:Drivers/STM32H7xx_HAL_Driver/Src/stm32h7xx_hal_dac_ex.c ****   UNUSED(hdac);
 313              		.loc 1 305 3 view .LVU71
 306:Drivers/STM32H7xx_HAL_Driver/Src/stm32h7xx_hal_dac_ex.c **** 
 307:Drivers/STM32H7xx_HAL_Driver/Src/stm32h7xx_hal_dac_ex.c ****   /* NOTE : This function should not be modified, when the callback is needed,
 308:Drivers/STM32H7xx_HAL_Driver/Src/stm32h7xx_hal_dac_ex.c ****             the HAL_DACEx_DMAUnderrunCallbackCh2 could be implemented in the user file
 309:Drivers/STM32H7xx_HAL_Driver/Src/stm32h7xx_hal_dac_ex.c ****    */
 310:Drivers/STM32H7xx_HAL_Driver/Src/stm32h7xx_hal_dac_ex.c **** }
 314              		.loc 1 310 1 is_stmt 0 view .LVU72
 315 0000 7047     		bx	lr
 316              		.cfi_endproc
 317              	.LFE143:
 319              		.section	.text.HAL_DACEx_SelfCalibrate,"ax",%progbits
 320              		.align	1
 321              		.global	HAL_DACEx_SelfCalibrate
 322              		.syntax unified
 323              		.thumb
 324              		.thumb_func
ARM GAS  /tmp/cc9ftHNL.s 			page 12


 325              		.fpu fpv5-d16
 327              	HAL_DACEx_SelfCalibrate:
 328              	.LVL21:
 329              	.LFB144:
 311:Drivers/STM32H7xx_HAL_Driver/Src/stm32h7xx_hal_dac_ex.c **** 
 312:Drivers/STM32H7xx_HAL_Driver/Src/stm32h7xx_hal_dac_ex.c **** 
 313:Drivers/STM32H7xx_HAL_Driver/Src/stm32h7xx_hal_dac_ex.c **** /**
 314:Drivers/STM32H7xx_HAL_Driver/Src/stm32h7xx_hal_dac_ex.c ****   * @brief  Run the self calibration of one DAC channel.
 315:Drivers/STM32H7xx_HAL_Driver/Src/stm32h7xx_hal_dac_ex.c ****   * @param  hdac: pointer to a DAC_HandleTypeDef structure that contains
 316:Drivers/STM32H7xx_HAL_Driver/Src/stm32h7xx_hal_dac_ex.c ****   *         the configuration information for the specified DAC.
 317:Drivers/STM32H7xx_HAL_Driver/Src/stm32h7xx_hal_dac_ex.c ****   * @param  sConfig: DAC channel configuration structure.
 318:Drivers/STM32H7xx_HAL_Driver/Src/stm32h7xx_hal_dac_ex.c ****   * @param  Channel: The selected DAC channel. 
 319:Drivers/STM32H7xx_HAL_Driver/Src/stm32h7xx_hal_dac_ex.c ****   *          This parameter can be one of the following values:
 320:Drivers/STM32H7xx_HAL_Driver/Src/stm32h7xx_hal_dac_ex.c ****   *            @arg DAC_CHANNEL_1: DAC Channel1 selected
 321:Drivers/STM32H7xx_HAL_Driver/Src/stm32h7xx_hal_dac_ex.c ****   *            @arg DAC_CHANNEL_2: DAC Channel2 selected
 322:Drivers/STM32H7xx_HAL_Driver/Src/stm32h7xx_hal_dac_ex.c ****   * @retval Updates DAC_TrimmingValue. , DAC_UserTrimming set to DAC_UserTrimming
 323:Drivers/STM32H7xx_HAL_Driver/Src/stm32h7xx_hal_dac_ex.c ****   * @retval HAL status
 324:Drivers/STM32H7xx_HAL_Driver/Src/stm32h7xx_hal_dac_ex.c ****   * @note   Calibration runs about 7 ms.
 325:Drivers/STM32H7xx_HAL_Driver/Src/stm32h7xx_hal_dac_ex.c ****   */
 326:Drivers/STM32H7xx_HAL_Driver/Src/stm32h7xx_hal_dac_ex.c **** 
 327:Drivers/STM32H7xx_HAL_Driver/Src/stm32h7xx_hal_dac_ex.c **** HAL_StatusTypeDef HAL_DACEx_SelfCalibrate (DAC_HandleTypeDef* hdac, DAC_ChannelConfTypeDef* sConfig
 328:Drivers/STM32H7xx_HAL_Driver/Src/stm32h7xx_hal_dac_ex.c **** { 
 330              		.loc 1 328 1 is_stmt 1 view -0
 331              		.cfi_startproc
 332              		@ args = 0, pretend = 0, frame = 8
 333              		@ frame_needed = 0, uses_anonymous_args = 0
 334              		.loc 1 328 1 is_stmt 0 view .LVU74
 335 0000 2DE9F04F 		push	{r4, r5, r6, r7, r8, r9, r10, fp, lr}
 336              	.LCFI4:
 337              		.cfi_def_cfa_offset 36
 338              		.cfi_offset 4, -36
 339              		.cfi_offset 5, -32
 340              		.cfi_offset 6, -28
 341              		.cfi_offset 7, -24
 342              		.cfi_offset 8, -20
 343              		.cfi_offset 9, -16
 344              		.cfi_offset 10, -12
 345              		.cfi_offset 11, -8
 346              		.cfi_offset 14, -4
 347 0004 83B0     		sub	sp, sp, #12
 348              	.LCFI5:
 349              		.cfi_def_cfa_offset 48
 329:Drivers/STM32H7xx_HAL_Driver/Src/stm32h7xx_hal_dac_ex.c ****   HAL_StatusTypeDef status = HAL_OK;
 350              		.loc 1 329 3 is_stmt 1 view .LVU75
 351              	.LVL22:
 330:Drivers/STM32H7xx_HAL_Driver/Src/stm32h7xx_hal_dac_ex.c ****    
 331:Drivers/STM32H7xx_HAL_Driver/Src/stm32h7xx_hal_dac_ex.c ****   __IO uint32_t tmp = 0;
 352              		.loc 1 331 3 view .LVU76
 353              		.loc 1 331 17 is_stmt 0 view .LVU77
 354 0006 0023     		movs	r3, #0
 355 0008 0193     		str	r3, [sp, #4]
 332:Drivers/STM32H7xx_HAL_Driver/Src/stm32h7xx_hal_dac_ex.c ****   uint32_t trimmingvalue = 0;
 356              		.loc 1 332 3 is_stmt 1 view .LVU78
 357              	.LVL23:
 333:Drivers/STM32H7xx_HAL_Driver/Src/stm32h7xx_hal_dac_ex.c ****   uint32_t delta;
 358              		.loc 1 333 3 view .LVU79
 334:Drivers/STM32H7xx_HAL_Driver/Src/stm32h7xx_hal_dac_ex.c ****   
ARM GAS  /tmp/cc9ftHNL.s 			page 13


 335:Drivers/STM32H7xx_HAL_Driver/Src/stm32h7xx_hal_dac_ex.c ****   /* store/restore channel configuration structure purpose */
 336:Drivers/STM32H7xx_HAL_Driver/Src/stm32h7xx_hal_dac_ex.c ****   uint32_t oldmodeconfiguration = 0;
 359              		.loc 1 336 3 view .LVU80
 337:Drivers/STM32H7xx_HAL_Driver/Src/stm32h7xx_hal_dac_ex.c ****   
 338:Drivers/STM32H7xx_HAL_Driver/Src/stm32h7xx_hal_dac_ex.c ****   /* Check the parameters */
 339:Drivers/STM32H7xx_HAL_Driver/Src/stm32h7xx_hal_dac_ex.c ****   assert_param(IS_DAC_CHANNEL(Channel));
 360              		.loc 1 339 3 view .LVU81
 340:Drivers/STM32H7xx_HAL_Driver/Src/stm32h7xx_hal_dac_ex.c ****     
 341:Drivers/STM32H7xx_HAL_Driver/Src/stm32h7xx_hal_dac_ex.c ****  /* Check the DAC handle allocation */
 342:Drivers/STM32H7xx_HAL_Driver/Src/stm32h7xx_hal_dac_ex.c ****  /* Check if DAC running */
 343:Drivers/STM32H7xx_HAL_Driver/Src/stm32h7xx_hal_dac_ex.c ****   if((hdac == NULL) || (hdac->State == HAL_DAC_STATE_BUSY))
 361              		.loc 1 343 3 view .LVU82
 362              		.loc 1 343 5 is_stmt 0 view .LVU83
 363 000a 0028     		cmp	r0, #0
 364 000c 7FD0     		beq	.L32
 365 000e 0446     		mov	r4, r0
 366              		.loc 1 343 29 discriminator 1 view .LVU84
 367 0010 0379     		ldrb	r3, [r0, #4]	@ zero_extendqisi2
 368 0012 DBB2     		uxtb	r3, r3
 369              		.loc 1 343 21 discriminator 1 view .LVU85
 370 0014 022B     		cmp	r3, #2
 371 0016 7CD0     		beq	.L33
 344:Drivers/STM32H7xx_HAL_Driver/Src/stm32h7xx_hal_dac_ex.c ****   {
 345:Drivers/STM32H7xx_HAL_Driver/Src/stm32h7xx_hal_dac_ex.c ****     status = HAL_ERROR;
 346:Drivers/STM32H7xx_HAL_Driver/Src/stm32h7xx_hal_dac_ex.c ****   }
 347:Drivers/STM32H7xx_HAL_Driver/Src/stm32h7xx_hal_dac_ex.c ****   else
 348:Drivers/STM32H7xx_HAL_Driver/Src/stm32h7xx_hal_dac_ex.c ****   {  
 349:Drivers/STM32H7xx_HAL_Driver/Src/stm32h7xx_hal_dac_ex.c ****     /* Process locked */
 350:Drivers/STM32H7xx_HAL_Driver/Src/stm32h7xx_hal_dac_ex.c ****     __HAL_LOCK(hdac);
 372              		.loc 1 350 5 is_stmt 1 view .LVU86
 373              		.loc 1 350 5 view .LVU87
 374 0018 4379     		ldrb	r3, [r0, #5]	@ zero_extendqisi2
 375 001a 012B     		cmp	r3, #1
 376 001c 7BD0     		beq	.L34
 377              		.loc 1 350 5 discriminator 2 view .LVU88
 378 001e 0123     		movs	r3, #1
 379 0020 4371     		strb	r3, [r0, #5]
 351:Drivers/STM32H7xx_HAL_Driver/Src/stm32h7xx_hal_dac_ex.c **** 
 352:Drivers/STM32H7xx_HAL_Driver/Src/stm32h7xx_hal_dac_ex.c ****     /* Store configuration */
 353:Drivers/STM32H7xx_HAL_Driver/Src/stm32h7xx_hal_dac_ex.c ****     oldmodeconfiguration = (hdac->Instance->MCR & (DAC_MCR_MODE1 << Channel));
 380              		.loc 1 353 5 discriminator 2 view .LVU89
 381              		.loc 1 353 33 is_stmt 0 discriminator 2 view .LVU90
 382 0022 0068     		ldr	r0, [r0]
 383              	.LVL24:
 384              		.loc 1 353 43 discriminator 2 view .LVU91
 385 0024 C56B     		ldr	r5, [r0, #60]
 386              		.loc 1 353 66 discriminator 2 view .LVU92
 387 0026 4FF00708 		mov	r8, #7
 388 002a 08FA02F8 		lsl	r8, r8, r2
 389              		.loc 1 353 26 discriminator 2 view .LVU93
 390 002e 05EA080B 		and	fp, r5, r8
 391              	.LVL25:
 354:Drivers/STM32H7xx_HAL_Driver/Src/stm32h7xx_hal_dac_ex.c **** 
 355:Drivers/STM32H7xx_HAL_Driver/Src/stm32h7xx_hal_dac_ex.c ****     /* Disable the selected DAC channel */
 356:Drivers/STM32H7xx_HAL_Driver/Src/stm32h7xx_hal_dac_ex.c ****     CLEAR_BIT ((hdac->Instance->CR), (DAC_CR_EN1 << Channel));
 392              		.loc 1 356 5 is_stmt 1 discriminator 2 view .LVU94
 393 0032 0568     		ldr	r5, [r0]
ARM GAS  /tmp/cc9ftHNL.s 			page 14


 394 0034 9340     		lsls	r3, r3, r2
 395 0036 25EA0303 		bic	r3, r5, r3
 396 003a 0360     		str	r3, [r0]
 357:Drivers/STM32H7xx_HAL_Driver/Src/stm32h7xx_hal_dac_ex.c **** 
 358:Drivers/STM32H7xx_HAL_Driver/Src/stm32h7xx_hal_dac_ex.c ****     /* Set mode in MCR  for calibration */
 359:Drivers/STM32H7xx_HAL_Driver/Src/stm32h7xx_hal_dac_ex.c ****      MODIFY_REG(hdac->Instance->MCR, (DAC_MCR_MODE1 << Channel), 0);
 397              		.loc 1 359 6 discriminator 2 view .LVU95
 398 003c 2068     		ldr	r0, [r4]
 399 003e C36B     		ldr	r3, [r0, #60]
 400 0040 6FEA0808 		mvn	r8, r8
 401 0044 03EA0803 		and	r3, r3, r8
 402 0048 C363     		str	r3, [r0, #60]
 360:Drivers/STM32H7xx_HAL_Driver/Src/stm32h7xx_hal_dac_ex.c ****  
 361:Drivers/STM32H7xx_HAL_Driver/Src/stm32h7xx_hal_dac_ex.c ****     /* Set DAC Channel1 DHR register to the middle value */
 362:Drivers/STM32H7xx_HAL_Driver/Src/stm32h7xx_hal_dac_ex.c **** 
 363:Drivers/STM32H7xx_HAL_Driver/Src/stm32h7xx_hal_dac_ex.c ****     tmp = (uint32_t)hdac->Instance; 
 403              		.loc 1 363 5 discriminator 2 view .LVU96
 404              		.loc 1 363 25 is_stmt 0 discriminator 2 view .LVU97
 405 004a 2368     		ldr	r3, [r4]
 406              		.loc 1 363 9 discriminator 2 view .LVU98
 407 004c 0193     		str	r3, [sp, #4]
 364:Drivers/STM32H7xx_HAL_Driver/Src/stm32h7xx_hal_dac_ex.c ****     if(Channel == DAC_CHANNEL_1)
 408              		.loc 1 364 5 is_stmt 1 discriminator 2 view .LVU99
 409              		.loc 1 364 7 is_stmt 0 discriminator 2 view .LVU100
 410 004e A2B9     		cbnz	r2, .L25
 365:Drivers/STM32H7xx_HAL_Driver/Src/stm32h7xx_hal_dac_ex.c ****     {
 366:Drivers/STM32H7xx_HAL_Driver/Src/stm32h7xx_hal_dac_ex.c ****       tmp += DAC_DHR12R1_ALIGNMENT(DAC_ALIGN_12B_R);
 411              		.loc 1 366 7 is_stmt 1 view .LVU101
 412              		.loc 1 366 11 is_stmt 0 view .LVU102
 413 0050 019B     		ldr	r3, [sp, #4]
 414 0052 0833     		adds	r3, r3, #8
 415 0054 0193     		str	r3, [sp, #4]
 416              	.L26:
 417 0056 1546     		mov	r5, r2
 418 0058 8A46     		mov	r10, r1
 367:Drivers/STM32H7xx_HAL_Driver/Src/stm32h7xx_hal_dac_ex.c ****     }
 368:Drivers/STM32H7xx_HAL_Driver/Src/stm32h7xx_hal_dac_ex.c ****     else
 369:Drivers/STM32H7xx_HAL_Driver/Src/stm32h7xx_hal_dac_ex.c ****     {
 370:Drivers/STM32H7xx_HAL_Driver/Src/stm32h7xx_hal_dac_ex.c ****       tmp += DAC_DHR12R2_ALIGNMENT(DAC_ALIGN_12B_R);
 371:Drivers/STM32H7xx_HAL_Driver/Src/stm32h7xx_hal_dac_ex.c ****     }
 372:Drivers/STM32H7xx_HAL_Driver/Src/stm32h7xx_hal_dac_ex.c ****     *(__IO uint32_t *) tmp = 0x0800;
 419              		.loc 1 372 5 is_stmt 1 view .LVU103
 420              		.loc 1 372 6 is_stmt 0 view .LVU104
 421 005a 019B     		ldr	r3, [sp, #4]
 422              		.loc 1 372 28 view .LVU105
 423 005c 4FF40062 		mov	r2, #2048
 424              	.LVL26:
 425              		.loc 1 372 28 view .LVU106
 426 0060 1A60     		str	r2, [r3]
 373:Drivers/STM32H7xx_HAL_Driver/Src/stm32h7xx_hal_dac_ex.c ****  
 374:Drivers/STM32H7xx_HAL_Driver/Src/stm32h7xx_hal_dac_ex.c ****     /* Enable the selected DAC channel calibration */
 375:Drivers/STM32H7xx_HAL_Driver/Src/stm32h7xx_hal_dac_ex.c ****     /* i.e. set DAC_CR_CENx bit */ 
 376:Drivers/STM32H7xx_HAL_Driver/Src/stm32h7xx_hal_dac_ex.c ****     SET_BIT ((hdac->Instance->CR), (DAC_CR_CEN1 << Channel));
 427              		.loc 1 376 5 is_stmt 1 view .LVU107
 428 0062 2268     		ldr	r2, [r4]
 429 0064 1368     		ldr	r3, [r2]
 430 0066 4FF48049 		mov	r9, #16384
ARM GAS  /tmp/cc9ftHNL.s 			page 15


 431 006a 09FA05F9 		lsl	r9, r9, r5
 432 006e 43EA0903 		orr	r3, r3, r9
 433 0072 1360     		str	r3, [r2]
 377:Drivers/STM32H7xx_HAL_Driver/Src/stm32h7xx_hal_dac_ex.c ****  
 378:Drivers/STM32H7xx_HAL_Driver/Src/stm32h7xx_hal_dac_ex.c ****     /* Init trimming counter */    
 379:Drivers/STM32H7xx_HAL_Driver/Src/stm32h7xx_hal_dac_ex.c ****     /* Medium value */
 380:Drivers/STM32H7xx_HAL_Driver/Src/stm32h7xx_hal_dac_ex.c ****     trimmingvalue = 16; 
 434              		.loc 1 380 5 view .LVU108
 435              	.LVL27:
 381:Drivers/STM32H7xx_HAL_Driver/Src/stm32h7xx_hal_dac_ex.c ****     delta = 8;
 436              		.loc 1 381 5 view .LVU109
 382:Drivers/STM32H7xx_HAL_Driver/Src/stm32h7xx_hal_dac_ex.c ****     while (delta != 0) 
 437              		.loc 1 382 5 view .LVU110
 381:Drivers/STM32H7xx_HAL_Driver/Src/stm32h7xx_hal_dac_ex.c ****     delta = 8;
 438              		.loc 1 381 11 is_stmt 0 view .LVU111
 439 0074 0826     		movs	r6, #8
 380:Drivers/STM32H7xx_HAL_Driver/Src/stm32h7xx_hal_dac_ex.c ****     delta = 8;
 440              		.loc 1 380 19 view .LVU112
 441 0076 1027     		movs	r7, #16
 442              		.loc 1 382 11 view .LVU113
 443 0078 05E0     		b	.L27
 444              	.LVL28:
 445              	.L25:
 370:Drivers/STM32H7xx_HAL_Driver/Src/stm32h7xx_hal_dac_ex.c ****     }
 446              		.loc 1 370 7 is_stmt 1 view .LVU114
 370:Drivers/STM32H7xx_HAL_Driver/Src/stm32h7xx_hal_dac_ex.c ****     }
 447              		.loc 1 370 11 is_stmt 0 view .LVU115
 448 007a 019B     		ldr	r3, [sp, #4]
 449 007c 1433     		adds	r3, r3, #20
 450 007e 0193     		str	r3, [sp, #4]
 451 0080 E9E7     		b	.L26
 452              	.LVL29:
 453              	.L28:
 383:Drivers/STM32H7xx_HAL_Driver/Src/stm32h7xx_hal_dac_ex.c ****     {
 384:Drivers/STM32H7xx_HAL_Driver/Src/stm32h7xx_hal_dac_ex.c ****       /* Set candidate trimming */
 385:Drivers/STM32H7xx_HAL_Driver/Src/stm32h7xx_hal_dac_ex.c ****       MODIFY_REG(hdac->Instance->CCR, (DAC_CCR_OTRIM1<<Channel), (trimmingvalue<<Channel));
 386:Drivers/STM32H7xx_HAL_Driver/Src/stm32h7xx_hal_dac_ex.c **** 
 387:Drivers/STM32H7xx_HAL_Driver/Src/stm32h7xx_hal_dac_ex.c ****       /* tOFFTRIMmax delay x ms as per datasheet (electrical characteristics */ 
 388:Drivers/STM32H7xx_HAL_Driver/Src/stm32h7xx_hal_dac_ex.c ****       /* i.e. minimum time needed between two calibration steps */
 389:Drivers/STM32H7xx_HAL_Driver/Src/stm32h7xx_hal_dac_ex.c ****       HAL_Delay(1);
 390:Drivers/STM32H7xx_HAL_Driver/Src/stm32h7xx_hal_dac_ex.c ****    
 391:Drivers/STM32H7xx_HAL_Driver/Src/stm32h7xx_hal_dac_ex.c ****       if ((hdac->Instance->SR & (DAC_SR_CAL_FLAG1<<Channel)) == (DAC_SR_CAL_FLAG1<<Channel))
 392:Drivers/STM32H7xx_HAL_Driver/Src/stm32h7xx_hal_dac_ex.c ****       { 
 393:Drivers/STM32H7xx_HAL_Driver/Src/stm32h7xx_hal_dac_ex.c ****         /* DAC_SR_CAL_FLAGx is HIGH try higher trimming */
 394:Drivers/STM32H7xx_HAL_Driver/Src/stm32h7xx_hal_dac_ex.c ****         trimmingvalue -= delta;
 395:Drivers/STM32H7xx_HAL_Driver/Src/stm32h7xx_hal_dac_ex.c ****       }
 396:Drivers/STM32H7xx_HAL_Driver/Src/stm32h7xx_hal_dac_ex.c ****       else
 397:Drivers/STM32H7xx_HAL_Driver/Src/stm32h7xx_hal_dac_ex.c ****       {
 398:Drivers/STM32H7xx_HAL_Driver/Src/stm32h7xx_hal_dac_ex.c ****          /* DAC_SR_CAL_FLAGx is LOW try lower trimming */
 399:Drivers/STM32H7xx_HAL_Driver/Src/stm32h7xx_hal_dac_ex.c ****          trimmingvalue += delta;
 454              		.loc 1 399 10 is_stmt 1 view .LVU116
 455              		.loc 1 399 24 is_stmt 0 view .LVU117
 456 0082 3744     		add	r7, r7, r6
 457              	.LVL30:
 458              	.L29:
 400:Drivers/STM32H7xx_HAL_Driver/Src/stm32h7xx_hal_dac_ex.c **** 
 401:Drivers/STM32H7xx_HAL_Driver/Src/stm32h7xx_hal_dac_ex.c ****       }                   
ARM GAS  /tmp/cc9ftHNL.s 			page 16


 402:Drivers/STM32H7xx_HAL_Driver/Src/stm32h7xx_hal_dac_ex.c ****       delta >>= 1;    
 459              		.loc 1 402 7 is_stmt 1 view .LVU118
 460              		.loc 1 402 13 is_stmt 0 view .LVU119
 461 0084 7608     		lsrs	r6, r6, #1
 462              	.LVL31:
 463              	.L27:
 382:Drivers/STM32H7xx_HAL_Driver/Src/stm32h7xx_hal_dac_ex.c ****     {
 464              		.loc 1 382 11 view .LVU120
 465 0086 9EB1     		cbz	r6, .L36
 385:Drivers/STM32H7xx_HAL_Driver/Src/stm32h7xx_hal_dac_ex.c **** 
 466              		.loc 1 385 7 is_stmt 1 view .LVU121
 467 0088 2168     		ldr	r1, [r4]
 468 008a 8B6B     		ldr	r3, [r1, #56]
 469 008c 1F22     		movs	r2, #31
 470 008e AA40     		lsls	r2, r2, r5
 471 0090 23EA0203 		bic	r3, r3, r2
 472 0094 07FA05F2 		lsl	r2, r7, r5
 473 0098 1343     		orrs	r3, r3, r2
 474 009a 8B63     		str	r3, [r1, #56]
 389:Drivers/STM32H7xx_HAL_Driver/Src/stm32h7xx_hal_dac_ex.c ****    
 475              		.loc 1 389 7 view .LVU122
 476 009c 0120     		movs	r0, #1
 477 009e FFF7FEFF 		bl	HAL_Delay
 478              	.LVL32:
 391:Drivers/STM32H7xx_HAL_Driver/Src/stm32h7xx_hal_dac_ex.c ****       { 
 479              		.loc 1 391 7 view .LVU123
 391:Drivers/STM32H7xx_HAL_Driver/Src/stm32h7xx_hal_dac_ex.c ****       { 
 480              		.loc 1 391 16 is_stmt 0 view .LVU124
 481 00a2 2368     		ldr	r3, [r4]
 391:Drivers/STM32H7xx_HAL_Driver/Src/stm32h7xx_hal_dac_ex.c ****       { 
 482              		.loc 1 391 26 view .LVU125
 483 00a4 5B6B     		ldr	r3, [r3, #52]
 391:Drivers/STM32H7xx_HAL_Driver/Src/stm32h7xx_hal_dac_ex.c ****       { 
 484              		.loc 1 391 10 view .LVU126
 485 00a6 39EA0303 		bics	r3, r9, r3
 486 00aa EAD1     		bne	.L28
 394:Drivers/STM32H7xx_HAL_Driver/Src/stm32h7xx_hal_dac_ex.c ****       }
 487              		.loc 1 394 9 is_stmt 1 view .LVU127
 394:Drivers/STM32H7xx_HAL_Driver/Src/stm32h7xx_hal_dac_ex.c ****       }
 488              		.loc 1 394 23 is_stmt 0 view .LVU128
 489 00ac BF1B     		subs	r7, r7, r6
 490              	.LVL33:
 394:Drivers/STM32H7xx_HAL_Driver/Src/stm32h7xx_hal_dac_ex.c ****       }
 491              		.loc 1 394 23 view .LVU129
 492 00ae E9E7     		b	.L29
 493              	.L36:
 403:Drivers/STM32H7xx_HAL_Driver/Src/stm32h7xx_hal_dac_ex.c ****     }
 404:Drivers/STM32H7xx_HAL_Driver/Src/stm32h7xx_hal_dac_ex.c **** 
 405:Drivers/STM32H7xx_HAL_Driver/Src/stm32h7xx_hal_dac_ex.c ****     /* Still need to check if right calibration is current value or one step below */
 406:Drivers/STM32H7xx_HAL_Driver/Src/stm32h7xx_hal_dac_ex.c ****     /* Indeed the first value that causes the DAC_SR_CAL_FLAGx bit to change from 0 to 1  */
 407:Drivers/STM32H7xx_HAL_Driver/Src/stm32h7xx_hal_dac_ex.c ****     /* Set candidate trimming */
 408:Drivers/STM32H7xx_HAL_Driver/Src/stm32h7xx_hal_dac_ex.c ****     MODIFY_REG(hdac->Instance->CCR, (DAC_CCR_OTRIM1<<Channel), (trimmingvalue<<Channel));
 494              		.loc 1 408 5 is_stmt 1 view .LVU130
 495 00b0 2268     		ldr	r2, [r4]
 496 00b2 936B     		ldr	r3, [r2, #56]
 497 00b4 1F26     		movs	r6, #31
 498              	.LVL34:
ARM GAS  /tmp/cc9ftHNL.s 			page 17


 499              		.loc 1 408 5 is_stmt 0 view .LVU131
 500 00b6 AE40     		lsls	r6, r6, r5
 501 00b8 F643     		mvns	r6, r6
 502 00ba 3340     		ands	r3, r3, r6
 503 00bc 07FA05F1 		lsl	r1, r7, r5
 504 00c0 0B43     		orrs	r3, r3, r1
 505 00c2 9363     		str	r3, [r2, #56]
 409:Drivers/STM32H7xx_HAL_Driver/Src/stm32h7xx_hal_dac_ex.c **** 
 410:Drivers/STM32H7xx_HAL_Driver/Src/stm32h7xx_hal_dac_ex.c ****     /* tOFFTRIMmax delay x ms as per datasheet (electrical characteristics */ 
 411:Drivers/STM32H7xx_HAL_Driver/Src/stm32h7xx_hal_dac_ex.c ****     /* i.e. minimum time needed between two calibration steps */
 412:Drivers/STM32H7xx_HAL_Driver/Src/stm32h7xx_hal_dac_ex.c ****     HAL_Delay(1);
 506              		.loc 1 412 5 is_stmt 1 view .LVU132
 507 00c4 0120     		movs	r0, #1
 508 00c6 FFF7FEFF 		bl	HAL_Delay
 509              	.LVL35:
 413:Drivers/STM32H7xx_HAL_Driver/Src/stm32h7xx_hal_dac_ex.c **** 
 414:Drivers/STM32H7xx_HAL_Driver/Src/stm32h7xx_hal_dac_ex.c ****     if (!(hdac->Instance->SR & (DAC_SR_CAL_FLAG1<<Channel)))
 510              		.loc 1 414 5 view .LVU133
 511              		.loc 1 414 15 is_stmt 0 view .LVU134
 512 00ca 2368     		ldr	r3, [r4]
 513              		.loc 1 414 25 view .LVU135
 514 00cc 5A6B     		ldr	r2, [r3, #52]
 515              		.loc 1 414 8 view .LVU136
 516 00ce 19EA020F 		tst	r9, r2
 517 00d2 06D1     		bne	.L31
 415:Drivers/STM32H7xx_HAL_Driver/Src/stm32h7xx_hal_dac_ex.c ****     { 
 416:Drivers/STM32H7xx_HAL_Driver/Src/stm32h7xx_hal_dac_ex.c ****       /* Trimming is actually one value more */
 417:Drivers/STM32H7xx_HAL_Driver/Src/stm32h7xx_hal_dac_ex.c ****       trimmingvalue ++;
 518              		.loc 1 417 7 is_stmt 1 view .LVU137
 519              		.loc 1 417 21 is_stmt 0 view .LVU138
 520 00d4 0137     		adds	r7, r7, #1
 521              	.LVL36:
 418:Drivers/STM32H7xx_HAL_Driver/Src/stm32h7xx_hal_dac_ex.c ****       /* Set right trimming */
 419:Drivers/STM32H7xx_HAL_Driver/Src/stm32h7xx_hal_dac_ex.c ****       MODIFY_REG(hdac->Instance->CCR, (DAC_CCR_OTRIM1<<Channel), (trimmingvalue<<Channel));
 522              		.loc 1 419 7 is_stmt 1 view .LVU139
 523 00d6 9A6B     		ldr	r2, [r3, #56]
 524 00d8 1640     		ands	r6, r6, r2
 525 00da 07FA05F5 		lsl	r5, r7, r5
 526              	.LVL37:
 527              		.loc 1 419 7 is_stmt 0 view .LVU140
 528 00de 3543     		orrs	r5, r5, r6
 529 00e0 9D63     		str	r5, [r3, #56]
 530              	.L31:
 420:Drivers/STM32H7xx_HAL_Driver/Src/stm32h7xx_hal_dac_ex.c ****     }
 421:Drivers/STM32H7xx_HAL_Driver/Src/stm32h7xx_hal_dac_ex.c ****  
 422:Drivers/STM32H7xx_HAL_Driver/Src/stm32h7xx_hal_dac_ex.c ****     /* Disable the selected DAC channel calibration */
 423:Drivers/STM32H7xx_HAL_Driver/Src/stm32h7xx_hal_dac_ex.c ****     /* i.e. clear DAC_CR_CENx bit */
 424:Drivers/STM32H7xx_HAL_Driver/Src/stm32h7xx_hal_dac_ex.c ****     CLEAR_BIT ((hdac->Instance->CR), (DAC_CR_CEN1 << Channel));
 531              		.loc 1 424 5 is_stmt 1 view .LVU141
 532 00e2 2268     		ldr	r2, [r4]
 533 00e4 1368     		ldr	r3, [r2]
 534 00e6 23EA0903 		bic	r3, r3, r9
 535 00ea 1360     		str	r3, [r2]
 425:Drivers/STM32H7xx_HAL_Driver/Src/stm32h7xx_hal_dac_ex.c ****     
 426:Drivers/STM32H7xx_HAL_Driver/Src/stm32h7xx_hal_dac_ex.c ****     sConfig->DAC_TrimmingValue = trimmingvalue;
 536              		.loc 1 426 5 view .LVU142
 537              		.loc 1 426 32 is_stmt 0 view .LVU143
ARM GAS  /tmp/cc9ftHNL.s 			page 18


 538 00ec CAF81470 		str	r7, [r10, #20]
 427:Drivers/STM32H7xx_HAL_Driver/Src/stm32h7xx_hal_dac_ex.c ****     sConfig->DAC_UserTrimming = DAC_TRIMMING_USER;
 539              		.loc 1 427 5 is_stmt 1 view .LVU144
 540              		.loc 1 427 31 is_stmt 0 view .LVU145
 541 00f0 0123     		movs	r3, #1
 542 00f2 CAF81030 		str	r3, [r10, #16]
 428:Drivers/STM32H7xx_HAL_Driver/Src/stm32h7xx_hal_dac_ex.c ****     
 429:Drivers/STM32H7xx_HAL_Driver/Src/stm32h7xx_hal_dac_ex.c ****     /* Restore configuration */
 430:Drivers/STM32H7xx_HAL_Driver/Src/stm32h7xx_hal_dac_ex.c ****     MODIFY_REG(hdac->Instance->MCR, (DAC_MCR_MODE1 << Channel), oldmodeconfiguration);
 543              		.loc 1 430 5 is_stmt 1 view .LVU146
 544 00f6 2268     		ldr	r2, [r4]
 545 00f8 D36B     		ldr	r3, [r2, #60]
 546 00fa 08EA0308 		and	r8, r8, r3
 547 00fe 48EA0B03 		orr	r3, r8, fp
 548 0102 D363     		str	r3, [r2, #60]
 431:Drivers/STM32H7xx_HAL_Driver/Src/stm32h7xx_hal_dac_ex.c **** 
 432:Drivers/STM32H7xx_HAL_Driver/Src/stm32h7xx_hal_dac_ex.c ****     /* Process unlocked */
 433:Drivers/STM32H7xx_HAL_Driver/Src/stm32h7xx_hal_dac_ex.c ****     __HAL_UNLOCK(hdac);
 549              		.loc 1 433 5 view .LVU147
 550              		.loc 1 433 5 view .LVU148
 551 0104 0020     		movs	r0, #0
 552 0106 6071     		strb	r0, [r4, #5]
 553              	.LVL38:
 554              	.L24:
 434:Drivers/STM32H7xx_HAL_Driver/Src/stm32h7xx_hal_dac_ex.c ****   }
 435:Drivers/STM32H7xx_HAL_Driver/Src/stm32h7xx_hal_dac_ex.c ****   
 436:Drivers/STM32H7xx_HAL_Driver/Src/stm32h7xx_hal_dac_ex.c ****   return status;
 437:Drivers/STM32H7xx_HAL_Driver/Src/stm32h7xx_hal_dac_ex.c **** }
 555              		.loc 1 437 1 is_stmt 0 view .LVU149
 556 0108 03B0     		add	sp, sp, #12
 557              	.LCFI6:
 558              		.cfi_remember_state
 559              		.cfi_def_cfa_offset 36
 560              		@ sp needed
 561 010a BDE8F08F 		pop	{r4, r5, r6, r7, r8, r9, r10, fp, pc}
 562              	.LVL39:
 563              	.L32:
 564              	.LCFI7:
 565              		.cfi_restore_state
 345:Drivers/STM32H7xx_HAL_Driver/Src/stm32h7xx_hal_dac_ex.c ****   }
 566              		.loc 1 345 12 view .LVU150
 567 010e 0120     		movs	r0, #1
 568              	.LVL40:
 345:Drivers/STM32H7xx_HAL_Driver/Src/stm32h7xx_hal_dac_ex.c ****   }
 569              		.loc 1 345 12 view .LVU151
 570 0110 FAE7     		b	.L24
 571              	.LVL41:
 572              	.L33:
 345:Drivers/STM32H7xx_HAL_Driver/Src/stm32h7xx_hal_dac_ex.c ****   }
 573              		.loc 1 345 12 view .LVU152
 574 0112 0120     		movs	r0, #1
 575              	.LVL42:
 345:Drivers/STM32H7xx_HAL_Driver/Src/stm32h7xx_hal_dac_ex.c ****   }
 576              		.loc 1 345 12 view .LVU153
 577 0114 F8E7     		b	.L24
 578              	.LVL43:
 579              	.L34:
ARM GAS  /tmp/cc9ftHNL.s 			page 19


 350:Drivers/STM32H7xx_HAL_Driver/Src/stm32h7xx_hal_dac_ex.c **** 
 580              		.loc 1 350 5 view .LVU154
 581 0116 0220     		movs	r0, #2
 582              	.LVL44:
 350:Drivers/STM32H7xx_HAL_Driver/Src/stm32h7xx_hal_dac_ex.c **** 
 583              		.loc 1 350 5 view .LVU155
 584 0118 F6E7     		b	.L24
 585              		.cfi_endproc
 586              	.LFE144:
 588              		.section	.text.HAL_DACEx_SetUserTrimming,"ax",%progbits
 589              		.align	1
 590              		.global	HAL_DACEx_SetUserTrimming
 591              		.syntax unified
 592              		.thumb
 593              		.thumb_func
 594              		.fpu fpv5-d16
 596              	HAL_DACEx_SetUserTrimming:
 597              	.LVL45:
 598              	.LFB145:
 438:Drivers/STM32H7xx_HAL_Driver/Src/stm32h7xx_hal_dac_ex.c **** 
 439:Drivers/STM32H7xx_HAL_Driver/Src/stm32h7xx_hal_dac_ex.c **** /**
 440:Drivers/STM32H7xx_HAL_Driver/Src/stm32h7xx_hal_dac_ex.c ****   * @}
 441:Drivers/STM32H7xx_HAL_Driver/Src/stm32h7xx_hal_dac_ex.c ****   */
 442:Drivers/STM32H7xx_HAL_Driver/Src/stm32h7xx_hal_dac_ex.c **** 
 443:Drivers/STM32H7xx_HAL_Driver/Src/stm32h7xx_hal_dac_ex.c **** /**
 444:Drivers/STM32H7xx_HAL_Driver/Src/stm32h7xx_hal_dac_ex.c ****   * @brief  Set the trimming mode and trimming value (user trimming mode applied). 
 445:Drivers/STM32H7xx_HAL_Driver/Src/stm32h7xx_hal_dac_ex.c ****   * @param  hdac: pointer to a DAC_HandleTypeDef structure that contains
 446:Drivers/STM32H7xx_HAL_Driver/Src/stm32h7xx_hal_dac_ex.c ****   *         the configuration information for the specified DAC.
 447:Drivers/STM32H7xx_HAL_Driver/Src/stm32h7xx_hal_dac_ex.c ****   * @param  sConfig: DAC configuration structure updated with new DAC trimming value.
 448:Drivers/STM32H7xx_HAL_Driver/Src/stm32h7xx_hal_dac_ex.c ****   * @param  Channel: The selected DAC channel. 
 449:Drivers/STM32H7xx_HAL_Driver/Src/stm32h7xx_hal_dac_ex.c ****   *          This parameter can be one of the following values:
 450:Drivers/STM32H7xx_HAL_Driver/Src/stm32h7xx_hal_dac_ex.c ****   *            @arg DAC_CHANNEL_1: DAC Channel1 selected
 451:Drivers/STM32H7xx_HAL_Driver/Src/stm32h7xx_hal_dac_ex.c ****   *            @arg DAC_CHANNEL_2: DAC Channel2 selected
 452:Drivers/STM32H7xx_HAL_Driver/Src/stm32h7xx_hal_dac_ex.c ****   * @param  NewTrimmingValue: DAC new trimming value
 453:Drivers/STM32H7xx_HAL_Driver/Src/stm32h7xx_hal_dac_ex.c ****   * @retval HAL status
 454:Drivers/STM32H7xx_HAL_Driver/Src/stm32h7xx_hal_dac_ex.c ****   */
 455:Drivers/STM32H7xx_HAL_Driver/Src/stm32h7xx_hal_dac_ex.c **** 
 456:Drivers/STM32H7xx_HAL_Driver/Src/stm32h7xx_hal_dac_ex.c **** HAL_StatusTypeDef HAL_DACEx_SetUserTrimming (DAC_HandleTypeDef* hdac, DAC_ChannelConfTypeDef* sConf
 457:Drivers/STM32H7xx_HAL_Driver/Src/stm32h7xx_hal_dac_ex.c **** { 
 599              		.loc 1 457 1 is_stmt 1 view -0
 600              		.cfi_startproc
 601              		@ args = 0, pretend = 0, frame = 0
 602              		@ frame_needed = 0, uses_anonymous_args = 0
 603              		@ link register save eliminated.
 458:Drivers/STM32H7xx_HAL_Driver/Src/stm32h7xx_hal_dac_ex.c ****   HAL_StatusTypeDef status = HAL_OK;
 604              		.loc 1 458 3 view .LVU157
 459:Drivers/STM32H7xx_HAL_Driver/Src/stm32h7xx_hal_dac_ex.c ****      
 460:Drivers/STM32H7xx_HAL_Driver/Src/stm32h7xx_hal_dac_ex.c ****   /* Check the parameters */
 461:Drivers/STM32H7xx_HAL_Driver/Src/stm32h7xx_hal_dac_ex.c ****   assert_param(IS_DAC_CHANNEL(Channel));
 605              		.loc 1 461 3 view .LVU158
 462:Drivers/STM32H7xx_HAL_Driver/Src/stm32h7xx_hal_dac_ex.c ****   assert_param(IS_DAC_NEWTRIMMINGVALUE(NewTrimmingValue));
 606              		.loc 1 462 3 view .LVU159
 463:Drivers/STM32H7xx_HAL_Driver/Src/stm32h7xx_hal_dac_ex.c ****   
 464:Drivers/STM32H7xx_HAL_Driver/Src/stm32h7xx_hal_dac_ex.c ****  /* Check the DAC handle allocation */
 465:Drivers/STM32H7xx_HAL_Driver/Src/stm32h7xx_hal_dac_ex.c ****   if(hdac == NULL)
 607              		.loc 1 465 3 view .LVU160
 608              		.loc 1 465 5 is_stmt 0 view .LVU161
ARM GAS  /tmp/cc9ftHNL.s 			page 20


 609 0000 B0B1     		cbz	r0, .L39
 457:Drivers/STM32H7xx_HAL_Driver/Src/stm32h7xx_hal_dac_ex.c ****   HAL_StatusTypeDef status = HAL_OK;
 610              		.loc 1 457 1 view .LVU162
 611 0002 F0B4     		push	{r4, r5, r6, r7}
 612              	.LCFI8:
 613              		.cfi_def_cfa_offset 16
 614              		.cfi_offset 4, -16
 615              		.cfi_offset 5, -12
 616              		.cfi_offset 6, -8
 617              		.cfi_offset 7, -4
 618 0004 0446     		mov	r4, r0
 466:Drivers/STM32H7xx_HAL_Driver/Src/stm32h7xx_hal_dac_ex.c ****   {
 467:Drivers/STM32H7xx_HAL_Driver/Src/stm32h7xx_hal_dac_ex.c ****     status = HAL_ERROR;
 468:Drivers/STM32H7xx_HAL_Driver/Src/stm32h7xx_hal_dac_ex.c ****   }
 469:Drivers/STM32H7xx_HAL_Driver/Src/stm32h7xx_hal_dac_ex.c ****   else
 470:Drivers/STM32H7xx_HAL_Driver/Src/stm32h7xx_hal_dac_ex.c ****   {  
 471:Drivers/STM32H7xx_HAL_Driver/Src/stm32h7xx_hal_dac_ex.c ****   
 472:Drivers/STM32H7xx_HAL_Driver/Src/stm32h7xx_hal_dac_ex.c ****     /* Process locked */
 473:Drivers/STM32H7xx_HAL_Driver/Src/stm32h7xx_hal_dac_ex.c ****     __HAL_LOCK(hdac);
 619              		.loc 1 473 5 is_stmt 1 view .LVU163
 620              		.loc 1 473 5 view .LVU164
 621 0006 4079     		ldrb	r0, [r0, #5]	@ zero_extendqisi2
 622              	.LVL46:
 623              		.loc 1 473 5 is_stmt 0 view .LVU165
 624 0008 0128     		cmp	r0, #1
 625 000a 13D0     		beq	.L40
 626              		.loc 1 473 5 is_stmt 1 discriminator 2 view .LVU166
 627 000c 0126     		movs	r6, #1
 628 000e 6671     		strb	r6, [r4, #5]
 474:Drivers/STM32H7xx_HAL_Driver/Src/stm32h7xx_hal_dac_ex.c **** 
 475:Drivers/STM32H7xx_HAL_Driver/Src/stm32h7xx_hal_dac_ex.c ****     /* Set new trimming */
 476:Drivers/STM32H7xx_HAL_Driver/Src/stm32h7xx_hal_dac_ex.c ****     MODIFY_REG(hdac->Instance->CCR, (DAC_CCR_OTRIM1<<Channel), (NewTrimmingValue<<Channel));
 629              		.loc 1 476 5 discriminator 2 view .LVU167
 630 0010 2768     		ldr	r7, [r4]
 631 0012 B86B     		ldr	r0, [r7, #56]
 632 0014 1F25     		movs	r5, #31
 633 0016 9540     		lsls	r5, r5, r2
 634 0018 20EA0500 		bic	r0, r0, r5
 635 001c 03FA02F2 		lsl	r2, r3, r2
 636              	.LVL47:
 637              		.loc 1 476 5 is_stmt 0 discriminator 2 view .LVU168
 638 0020 1043     		orrs	r0, r0, r2
 639 0022 B863     		str	r0, [r7, #56]
 477:Drivers/STM32H7xx_HAL_Driver/Src/stm32h7xx_hal_dac_ex.c **** 
 478:Drivers/STM32H7xx_HAL_Driver/Src/stm32h7xx_hal_dac_ex.c ****     /* Update trimming mode */
 479:Drivers/STM32H7xx_HAL_Driver/Src/stm32h7xx_hal_dac_ex.c ****     sConfig->DAC_UserTrimming = DAC_TRIMMING_USER;
 640              		.loc 1 479 5 is_stmt 1 discriminator 2 view .LVU169
 641              		.loc 1 479 31 is_stmt 0 discriminator 2 view .LVU170
 642 0024 0E61     		str	r6, [r1, #16]
 480:Drivers/STM32H7xx_HAL_Driver/Src/stm32h7xx_hal_dac_ex.c ****     sConfig->DAC_TrimmingValue = NewTrimmingValue;
 643              		.loc 1 480 5 is_stmt 1 discriminator 2 view .LVU171
 644              		.loc 1 480 32 is_stmt 0 discriminator 2 view .LVU172
 645 0026 4B61     		str	r3, [r1, #20]
 481:Drivers/STM32H7xx_HAL_Driver/Src/stm32h7xx_hal_dac_ex.c ****   
 482:Drivers/STM32H7xx_HAL_Driver/Src/stm32h7xx_hal_dac_ex.c ****     /* Process unlocked */
 483:Drivers/STM32H7xx_HAL_Driver/Src/stm32h7xx_hal_dac_ex.c ****     __HAL_UNLOCK(hdac);
 646              		.loc 1 483 5 is_stmt 1 discriminator 2 view .LVU173
ARM GAS  /tmp/cc9ftHNL.s 			page 21


 647              		.loc 1 483 5 discriminator 2 view .LVU174
 648 0028 0020     		movs	r0, #0
 649 002a 6071     		strb	r0, [r4, #5]
 650              	.L38:
 484:Drivers/STM32H7xx_HAL_Driver/Src/stm32h7xx_hal_dac_ex.c ****  
 485:Drivers/STM32H7xx_HAL_Driver/Src/stm32h7xx_hal_dac_ex.c ****   }  
 486:Drivers/STM32H7xx_HAL_Driver/Src/stm32h7xx_hal_dac_ex.c ****   return status;
 487:Drivers/STM32H7xx_HAL_Driver/Src/stm32h7xx_hal_dac_ex.c **** }
 651              		.loc 1 487 1 is_stmt 0 view .LVU175
 652 002c F0BC     		pop	{r4, r5, r6, r7}
 653              	.LCFI9:
 654              		.cfi_restore 7
 655              		.cfi_restore 6
 656              		.cfi_restore 5
 657              		.cfi_restore 4
 658              		.cfi_def_cfa_offset 0
 659              	.LVL48:
 660              		.loc 1 487 1 view .LVU176
 661 002e 7047     		bx	lr
 662              	.LVL49:
 663              	.L39:
 467:Drivers/STM32H7xx_HAL_Driver/Src/stm32h7xx_hal_dac_ex.c ****   }
 664              		.loc 1 467 12 view .LVU177
 665 0030 0120     		movs	r0, #1
 666              	.LVL50:
 667              		.loc 1 487 1 view .LVU178
 668 0032 7047     		bx	lr
 669              	.LVL51:
 670              	.L40:
 671              	.LCFI10:
 672              		.cfi_def_cfa_offset 16
 673              		.cfi_offset 4, -16
 674              		.cfi_offset 5, -12
 675              		.cfi_offset 6, -8
 676              		.cfi_offset 7, -4
 473:Drivers/STM32H7xx_HAL_Driver/Src/stm32h7xx_hal_dac_ex.c **** 
 677              		.loc 1 473 5 view .LVU179
 678 0034 0220     		movs	r0, #2
 679 0036 F9E7     		b	.L38
 680              		.cfi_endproc
 681              	.LFE145:
 683              		.section	.text.HAL_DACEx_GetTrimOffset,"ax",%progbits
 684              		.align	1
 685              		.global	HAL_DACEx_GetTrimOffset
 686              		.syntax unified
 687              		.thumb
 688              		.thumb_func
 689              		.fpu fpv5-d16
 691              	HAL_DACEx_GetTrimOffset:
 692              	.LVL52:
 693              	.LFB146:
 488:Drivers/STM32H7xx_HAL_Driver/Src/stm32h7xx_hal_dac_ex.c **** 
 489:Drivers/STM32H7xx_HAL_Driver/Src/stm32h7xx_hal_dac_ex.c **** 
 490:Drivers/STM32H7xx_HAL_Driver/Src/stm32h7xx_hal_dac_ex.c **** /**
 491:Drivers/STM32H7xx_HAL_Driver/Src/stm32h7xx_hal_dac_ex.c ****   * @brief  Return the DAC trimming value.
 492:Drivers/STM32H7xx_HAL_Driver/Src/stm32h7xx_hal_dac_ex.c ****   * @param  hdac : DAC handle
 493:Drivers/STM32H7xx_HAL_Driver/Src/stm32h7xx_hal_dac_ex.c ****   * @param  Channel: The selected DAC channel. 
ARM GAS  /tmp/cc9ftHNL.s 			page 22


 494:Drivers/STM32H7xx_HAL_Driver/Src/stm32h7xx_hal_dac_ex.c ****   *          This parameter can be one of the following values:
 495:Drivers/STM32H7xx_HAL_Driver/Src/stm32h7xx_hal_dac_ex.c ****   *            @arg DAC_CHANNEL_1: DAC Channel1 selected
 496:Drivers/STM32H7xx_HAL_Driver/Src/stm32h7xx_hal_dac_ex.c ****   *            @arg DAC_CHANNEL_2: DAC Channel2 selected
 497:Drivers/STM32H7xx_HAL_Driver/Src/stm32h7xx_hal_dac_ex.c ****   * @retval Trimming value : range: 0->31
 498:Drivers/STM32H7xx_HAL_Driver/Src/stm32h7xx_hal_dac_ex.c ****   *         
 499:Drivers/STM32H7xx_HAL_Driver/Src/stm32h7xx_hal_dac_ex.c ****  */
 500:Drivers/STM32H7xx_HAL_Driver/Src/stm32h7xx_hal_dac_ex.c **** 
 501:Drivers/STM32H7xx_HAL_Driver/Src/stm32h7xx_hal_dac_ex.c **** uint32_t HAL_DACEx_GetTrimOffset (DAC_HandleTypeDef *hdac, uint32_t Channel)
 502:Drivers/STM32H7xx_HAL_Driver/Src/stm32h7xx_hal_dac_ex.c **** {
 694              		.loc 1 502 1 is_stmt 1 view -0
 695              		.cfi_startproc
 696              		@ args = 0, pretend = 0, frame = 0
 697              		@ frame_needed = 0, uses_anonymous_args = 0
 698              		@ link register save eliminated.
 503:Drivers/STM32H7xx_HAL_Driver/Src/stm32h7xx_hal_dac_ex.c ****   uint32_t trimmingvalue = 0;
 699              		.loc 1 503 3 view .LVU181
 504:Drivers/STM32H7xx_HAL_Driver/Src/stm32h7xx_hal_dac_ex.c ****   
 505:Drivers/STM32H7xx_HAL_Driver/Src/stm32h7xx_hal_dac_ex.c ****   /* Check the DAC handle allocation */
 506:Drivers/STM32H7xx_HAL_Driver/Src/stm32h7xx_hal_dac_ex.c ****   /* And not in Reset state */
 507:Drivers/STM32H7xx_HAL_Driver/Src/stm32h7xx_hal_dac_ex.c ****   if((hdac == NULL) || (hdac->State == HAL_DAC_STATE_RESET))
 700              		.loc 1 507 3 view .LVU182
 701              		.loc 1 507 5 is_stmt 0 view .LVU183
 702 0000 40B1     		cbz	r0, .L47
 703              		.loc 1 507 29 discriminator 1 view .LVU184
 704 0002 0279     		ldrb	r2, [r0, #4]	@ zero_extendqisi2
 705              		.loc 1 507 21 discriminator 1 view .LVU185
 706 0004 42B1     		cbz	r2, .L48
 508:Drivers/STM32H7xx_HAL_Driver/Src/stm32h7xx_hal_dac_ex.c ****   {
 509:Drivers/STM32H7xx_HAL_Driver/Src/stm32h7xx_hal_dac_ex.c ****     return HAL_ERROR;
 510:Drivers/STM32H7xx_HAL_Driver/Src/stm32h7xx_hal_dac_ex.c ****   }
 511:Drivers/STM32H7xx_HAL_Driver/Src/stm32h7xx_hal_dac_ex.c ****   else
 512:Drivers/STM32H7xx_HAL_Driver/Src/stm32h7xx_hal_dac_ex.c ****   {
 513:Drivers/STM32H7xx_HAL_Driver/Src/stm32h7xx_hal_dac_ex.c ****     /* Check the parameter */
 514:Drivers/STM32H7xx_HAL_Driver/Src/stm32h7xx_hal_dac_ex.c ****     assert_param(IS_DAC_CHANNEL(Channel));
 707              		.loc 1 514 5 is_stmt 1 view .LVU186
 515:Drivers/STM32H7xx_HAL_Driver/Src/stm32h7xx_hal_dac_ex.c **** 
 516:Drivers/STM32H7xx_HAL_Driver/Src/stm32h7xx_hal_dac_ex.c ****     /* Retrieve trimming  */
 517:Drivers/STM32H7xx_HAL_Driver/Src/stm32h7xx_hal_dac_ex.c ****     trimmingvalue = ((hdac->Instance->CCR & (DAC_CCR_OTRIM1 << Channel)) >> Channel);
 708              		.loc 1 517 5 view .LVU187
 709              		.loc 1 517 27 is_stmt 0 view .LVU188
 710 0006 0368     		ldr	r3, [r0]
 711              		.loc 1 517 37 view .LVU189
 712 0008 986B     		ldr	r0, [r3, #56]
 713              	.LVL53:
 714              		.loc 1 517 61 view .LVU190
 715 000a 1F23     		movs	r3, #31
 716 000c 8B40     		lsls	r3, r3, r1
 717              		.loc 1 517 43 view .LVU191
 718 000e 1840     		ands	r0, r0, r3
 719              		.loc 1 517 19 view .LVU192
 720 0010 C840     		lsrs	r0, r0, r1
 721              	.LVL54:
 518:Drivers/STM32H7xx_HAL_Driver/Src/stm32h7xx_hal_dac_ex.c ****   }  
 519:Drivers/STM32H7xx_HAL_Driver/Src/stm32h7xx_hal_dac_ex.c ****   return trimmingvalue;
 722              		.loc 1 519 3 is_stmt 1 view .LVU193
 723              		.loc 1 519 10 is_stmt 0 view .LVU194
 724 0012 7047     		bx	lr
ARM GAS  /tmp/cc9ftHNL.s 			page 23


 725              	.LVL55:
 726              	.L47:
 509:Drivers/STM32H7xx_HAL_Driver/Src/stm32h7xx_hal_dac_ex.c ****   }
 727              		.loc 1 509 12 view .LVU195
 728 0014 0120     		movs	r0, #1
 729              	.LVL56:
 509:Drivers/STM32H7xx_HAL_Driver/Src/stm32h7xx_hal_dac_ex.c ****   }
 730              		.loc 1 509 12 view .LVU196
 731 0016 7047     		bx	lr
 732              	.LVL57:
 733              	.L48:
 509:Drivers/STM32H7xx_HAL_Driver/Src/stm32h7xx_hal_dac_ex.c ****   }
 734              		.loc 1 509 12 view .LVU197
 735 0018 0120     		movs	r0, #1
 736              	.LVL58:
 520:Drivers/STM32H7xx_HAL_Driver/Src/stm32h7xx_hal_dac_ex.c **** }
 737              		.loc 1 520 1 view .LVU198
 738 001a 7047     		bx	lr
 739              		.cfi_endproc
 740              	.LFE146:
 742              		.section	.text.HAL_DACEx_DualGetValue,"ax",%progbits
 743              		.align	1
 744              		.global	HAL_DACEx_DualGetValue
 745              		.syntax unified
 746              		.thumb
 747              		.thumb_func
 748              		.fpu fpv5-d16
 750              	HAL_DACEx_DualGetValue:
 751              	.LVL59:
 752              	.LFB147:
 521:Drivers/STM32H7xx_HAL_Driver/Src/stm32h7xx_hal_dac_ex.c **** /**
 522:Drivers/STM32H7xx_HAL_Driver/Src/stm32h7xx_hal_dac_ex.c ****   * @}
 523:Drivers/STM32H7xx_HAL_Driver/Src/stm32h7xx_hal_dac_ex.c ****   */
 524:Drivers/STM32H7xx_HAL_Driver/Src/stm32h7xx_hal_dac_ex.c **** 
 525:Drivers/STM32H7xx_HAL_Driver/Src/stm32h7xx_hal_dac_ex.c **** 
 526:Drivers/STM32H7xx_HAL_Driver/Src/stm32h7xx_hal_dac_ex.c **** /** @defgroup DACEx_Exported_Functions_Group3 Peripheral Control functions
 527:Drivers/STM32H7xx_HAL_Driver/Src/stm32h7xx_hal_dac_ex.c ****  *  @brief    Extended Peripheral Control functions 
 528:Drivers/STM32H7xx_HAL_Driver/Src/stm32h7xx_hal_dac_ex.c ****  *
 529:Drivers/STM32H7xx_HAL_Driver/Src/stm32h7xx_hal_dac_ex.c **** @verbatim   
 530:Drivers/STM32H7xx_HAL_Driver/Src/stm32h7xx_hal_dac_ex.c ****   ==============================================================================
 531:Drivers/STM32H7xx_HAL_Driver/Src/stm32h7xx_hal_dac_ex.c ****              ##### Peripheral Control functions #####
 532:Drivers/STM32H7xx_HAL_Driver/Src/stm32h7xx_hal_dac_ex.c ****   ==============================================================================  
 533:Drivers/STM32H7xx_HAL_Driver/Src/stm32h7xx_hal_dac_ex.c ****     [..]  This section provides functions allowing to:
 534:Drivers/STM32H7xx_HAL_Driver/Src/stm32h7xx_hal_dac_ex.c ****       (+) Configure channels. 
 535:Drivers/STM32H7xx_HAL_Driver/Src/stm32h7xx_hal_dac_ex.c ****       (+) Set the specified data holding register value for DAC channel.
 536:Drivers/STM32H7xx_HAL_Driver/Src/stm32h7xx_hal_dac_ex.c ****       
 537:Drivers/STM32H7xx_HAL_Driver/Src/stm32h7xx_hal_dac_ex.c **** @endverbatim
 538:Drivers/STM32H7xx_HAL_Driver/Src/stm32h7xx_hal_dac_ex.c ****   * @{
 539:Drivers/STM32H7xx_HAL_Driver/Src/stm32h7xx_hal_dac_ex.c ****   */
 540:Drivers/STM32H7xx_HAL_Driver/Src/stm32h7xx_hal_dac_ex.c **** 
 541:Drivers/STM32H7xx_HAL_Driver/Src/stm32h7xx_hal_dac_ex.c **** /**
 542:Drivers/STM32H7xx_HAL_Driver/Src/stm32h7xx_hal_dac_ex.c ****   * @brief  Return the last data output value of the selected DAC channel.
 543:Drivers/STM32H7xx_HAL_Driver/Src/stm32h7xx_hal_dac_ex.c ****   * @param  hdac: pointer to a DAC_HandleTypeDef structure that contains
 544:Drivers/STM32H7xx_HAL_Driver/Src/stm32h7xx_hal_dac_ex.c ****   *         the configuration information for the specified DAC.
 545:Drivers/STM32H7xx_HAL_Driver/Src/stm32h7xx_hal_dac_ex.c ****   * @retval The selected DAC channel data output value.
 546:Drivers/STM32H7xx_HAL_Driver/Src/stm32h7xx_hal_dac_ex.c ****   */
 547:Drivers/STM32H7xx_HAL_Driver/Src/stm32h7xx_hal_dac_ex.c **** uint32_t HAL_DACEx_DualGetValue(DAC_HandleTypeDef* hdac)
ARM GAS  /tmp/cc9ftHNL.s 			page 24


 548:Drivers/STM32H7xx_HAL_Driver/Src/stm32h7xx_hal_dac_ex.c **** {
 753              		.loc 1 548 1 is_stmt 1 view -0
 754              		.cfi_startproc
 755              		@ args = 0, pretend = 0, frame = 0
 756              		@ frame_needed = 0, uses_anonymous_args = 0
 757              		@ link register save eliminated.
 549:Drivers/STM32H7xx_HAL_Driver/Src/stm32h7xx_hal_dac_ex.c ****   uint32_t tmp = 0;
 758              		.loc 1 549 3 view .LVU200
 550:Drivers/STM32H7xx_HAL_Driver/Src/stm32h7xx_hal_dac_ex.c ****   
 551:Drivers/STM32H7xx_HAL_Driver/Src/stm32h7xx_hal_dac_ex.c ****   tmp |= hdac->Instance->DOR1;
 759              		.loc 1 551 3 view .LVU201
 760              		.loc 1 551 14 is_stmt 0 view .LVU202
 761 0000 0368     		ldr	r3, [r0]
 762              		.loc 1 551 24 view .LVU203
 763 0002 DA6A     		ldr	r2, [r3, #44]
 764              	.LVL60:
 552:Drivers/STM32H7xx_HAL_Driver/Src/stm32h7xx_hal_dac_ex.c **** 
 553:Drivers/STM32H7xx_HAL_Driver/Src/stm32h7xx_hal_dac_ex.c ****   tmp |= hdac->Instance->DOR2 << 16;
 765              		.loc 1 553 3 is_stmt 1 view .LVU204
 766              		.loc 1 553 24 is_stmt 0 view .LVU205
 767 0004 186B     		ldr	r0, [r3, #48]
 768              	.LVL61:
 554:Drivers/STM32H7xx_HAL_Driver/Src/stm32h7xx_hal_dac_ex.c ****   
 555:Drivers/STM32H7xx_HAL_Driver/Src/stm32h7xx_hal_dac_ex.c ****   /* Returns the DAC channel data output register value */
 556:Drivers/STM32H7xx_HAL_Driver/Src/stm32h7xx_hal_dac_ex.c ****   return tmp;
 769              		.loc 1 556 3 is_stmt 1 view .LVU206
 557:Drivers/STM32H7xx_HAL_Driver/Src/stm32h7xx_hal_dac_ex.c **** }
 770              		.loc 1 557 1 is_stmt 0 view .LVU207
 771 0006 42EA0040 		orr	r0, r2, r0, lsl #16
 772              	.LVL62:
 773              		.loc 1 557 1 view .LVU208
 774 000a 7047     		bx	lr
 775              		.cfi_endproc
 776              	.LFE147:
 778              		.section	.text.DAC_DMAConvCpltCh2,"ax",%progbits
 779              		.align	1
 780              		.global	DAC_DMAConvCpltCh2
 781              		.syntax unified
 782              		.thumb
 783              		.thumb_func
 784              		.fpu fpv5-d16
 786              	DAC_DMAConvCpltCh2:
 787              	.LVL63:
 788              	.LFB148:
 558:Drivers/STM32H7xx_HAL_Driver/Src/stm32h7xx_hal_dac_ex.c **** 
 559:Drivers/STM32H7xx_HAL_Driver/Src/stm32h7xx_hal_dac_ex.c **** /**
 560:Drivers/STM32H7xx_HAL_Driver/Src/stm32h7xx_hal_dac_ex.c ****   * @}
 561:Drivers/STM32H7xx_HAL_Driver/Src/stm32h7xx_hal_dac_ex.c ****   */
 562:Drivers/STM32H7xx_HAL_Driver/Src/stm32h7xx_hal_dac_ex.c **** 
 563:Drivers/STM32H7xx_HAL_Driver/Src/stm32h7xx_hal_dac_ex.c **** 
 564:Drivers/STM32H7xx_HAL_Driver/Src/stm32h7xx_hal_dac_ex.c **** /* Private functions ---------------------------------------------------------*/
 565:Drivers/STM32H7xx_HAL_Driver/Src/stm32h7xx_hal_dac_ex.c **** /** @defgroup DACEx_Private_Functions DACEx private functions
 566:Drivers/STM32H7xx_HAL_Driver/Src/stm32h7xx_hal_dac_ex.c ****  *  @brief    Extended private functions
 567:Drivers/STM32H7xx_HAL_Driver/Src/stm32h7xx_hal_dac_ex.c ****    * @{
 568:Drivers/STM32H7xx_HAL_Driver/Src/stm32h7xx_hal_dac_ex.c ****   */
 569:Drivers/STM32H7xx_HAL_Driver/Src/stm32h7xx_hal_dac_ex.c **** 
 570:Drivers/STM32H7xx_HAL_Driver/Src/stm32h7xx_hal_dac_ex.c **** /**
ARM GAS  /tmp/cc9ftHNL.s 			page 25


 571:Drivers/STM32H7xx_HAL_Driver/Src/stm32h7xx_hal_dac_ex.c ****   * @brief  DMA conversion complete callback. 
 572:Drivers/STM32H7xx_HAL_Driver/Src/stm32h7xx_hal_dac_ex.c ****   * @param  hdma: pointer to a DMA_HandleTypeDef structure that contains
 573:Drivers/STM32H7xx_HAL_Driver/Src/stm32h7xx_hal_dac_ex.c ****   *                the configuration information for the specified DMA module.
 574:Drivers/STM32H7xx_HAL_Driver/Src/stm32h7xx_hal_dac_ex.c ****   * @retval None
 575:Drivers/STM32H7xx_HAL_Driver/Src/stm32h7xx_hal_dac_ex.c ****   */
 576:Drivers/STM32H7xx_HAL_Driver/Src/stm32h7xx_hal_dac_ex.c **** void DAC_DMAConvCpltCh2(DMA_HandleTypeDef *hdma)   
 577:Drivers/STM32H7xx_HAL_Driver/Src/stm32h7xx_hal_dac_ex.c **** {
 789              		.loc 1 577 1 is_stmt 1 view -0
 790              		.cfi_startproc
 791              		@ args = 0, pretend = 0, frame = 0
 792              		@ frame_needed = 0, uses_anonymous_args = 0
 793              		.loc 1 577 1 is_stmt 0 view .LVU210
 794 0000 10B5     		push	{r4, lr}
 795              	.LCFI11:
 796              		.cfi_def_cfa_offset 8
 797              		.cfi_offset 4, -8
 798              		.cfi_offset 14, -4
 578:Drivers/STM32H7xx_HAL_Driver/Src/stm32h7xx_hal_dac_ex.c ****   DAC_HandleTypeDef* hdac = ( DAC_HandleTypeDef* )((DMA_HandleTypeDef* )hdma)->Parent;
 799              		.loc 1 578 3 is_stmt 1 view .LVU211
 800              		.loc 1 578 22 is_stmt 0 view .LVU212
 801 0002 846B     		ldr	r4, [r0, #56]
 802              	.LVL64:
 579:Drivers/STM32H7xx_HAL_Driver/Src/stm32h7xx_hal_dac_ex.c ****   
 580:Drivers/STM32H7xx_HAL_Driver/Src/stm32h7xx_hal_dac_ex.c ****   HAL_DACEx_ConvCpltCallbackCh2(hdac); 
 803              		.loc 1 580 3 is_stmt 1 view .LVU213
 804 0004 2046     		mov	r0, r4
 805              	.LVL65:
 806              		.loc 1 580 3 is_stmt 0 view .LVU214
 807 0006 FFF7FEFF 		bl	HAL_DACEx_ConvCpltCallbackCh2
 808              	.LVL66:
 581:Drivers/STM32H7xx_HAL_Driver/Src/stm32h7xx_hal_dac_ex.c ****   
 582:Drivers/STM32H7xx_HAL_Driver/Src/stm32h7xx_hal_dac_ex.c ****   hdac->State= HAL_DAC_STATE_READY;
 809              		.loc 1 582 3 is_stmt 1 view .LVU215
 810              		.loc 1 582 14 is_stmt 0 view .LVU216
 811 000a 0123     		movs	r3, #1
 812 000c 2371     		strb	r3, [r4, #4]
 583:Drivers/STM32H7xx_HAL_Driver/Src/stm32h7xx_hal_dac_ex.c **** }
 813              		.loc 1 583 1 view .LVU217
 814 000e 10BD     		pop	{r4, pc}
 815              		.loc 1 583 1 view .LVU218
 816              		.cfi_endproc
 817              	.LFE148:
 819              		.section	.text.DAC_DMAHalfConvCpltCh2,"ax",%progbits
 820              		.align	1
 821              		.global	DAC_DMAHalfConvCpltCh2
 822              		.syntax unified
 823              		.thumb
 824              		.thumb_func
 825              		.fpu fpv5-d16
 827              	DAC_DMAHalfConvCpltCh2:
 828              	.LVL67:
 829              	.LFB149:
 584:Drivers/STM32H7xx_HAL_Driver/Src/stm32h7xx_hal_dac_ex.c **** 
 585:Drivers/STM32H7xx_HAL_Driver/Src/stm32h7xx_hal_dac_ex.c **** /**
 586:Drivers/STM32H7xx_HAL_Driver/Src/stm32h7xx_hal_dac_ex.c ****   * @brief  DMA half transfer complete callback. 
 587:Drivers/STM32H7xx_HAL_Driver/Src/stm32h7xx_hal_dac_ex.c ****   * @param  hdma: pointer to a DMA_HandleTypeDef structure that contains
 588:Drivers/STM32H7xx_HAL_Driver/Src/stm32h7xx_hal_dac_ex.c ****   *                the configuration information for the specified DMA module.
ARM GAS  /tmp/cc9ftHNL.s 			page 26


 589:Drivers/STM32H7xx_HAL_Driver/Src/stm32h7xx_hal_dac_ex.c ****   * @retval None
 590:Drivers/STM32H7xx_HAL_Driver/Src/stm32h7xx_hal_dac_ex.c ****   */
 591:Drivers/STM32H7xx_HAL_Driver/Src/stm32h7xx_hal_dac_ex.c **** void DAC_DMAHalfConvCpltCh2(DMA_HandleTypeDef *hdma)   
 592:Drivers/STM32H7xx_HAL_Driver/Src/stm32h7xx_hal_dac_ex.c **** {
 830              		.loc 1 592 1 is_stmt 1 view -0
 831              		.cfi_startproc
 832              		@ args = 0, pretend = 0, frame = 0
 833              		@ frame_needed = 0, uses_anonymous_args = 0
 834              		.loc 1 592 1 is_stmt 0 view .LVU220
 835 0000 08B5     		push	{r3, lr}
 836              	.LCFI12:
 837              		.cfi_def_cfa_offset 8
 838              		.cfi_offset 3, -8
 839              		.cfi_offset 14, -4
 593:Drivers/STM32H7xx_HAL_Driver/Src/stm32h7xx_hal_dac_ex.c ****     DAC_HandleTypeDef* hdac = ( DAC_HandleTypeDef* )((DMA_HandleTypeDef* )hdma)->Parent;
 840              		.loc 1 593 5 is_stmt 1 view .LVU221
 841              	.LVL68:
 594:Drivers/STM32H7xx_HAL_Driver/Src/stm32h7xx_hal_dac_ex.c ****     /* Conversion complete callback */
 595:Drivers/STM32H7xx_HAL_Driver/Src/stm32h7xx_hal_dac_ex.c ****     HAL_DACEx_ConvHalfCpltCallbackCh2(hdac); 
 842              		.loc 1 595 5 view .LVU222
 843 0002 806B     		ldr	r0, [r0, #56]
 844              	.LVL69:
 845              		.loc 1 595 5 is_stmt 0 view .LVU223
 846 0004 FFF7FEFF 		bl	HAL_DACEx_ConvHalfCpltCallbackCh2
 847              	.LVL70:
 596:Drivers/STM32H7xx_HAL_Driver/Src/stm32h7xx_hal_dac_ex.c **** }
 848              		.loc 1 596 1 view .LVU224
 849 0008 08BD     		pop	{r3, pc}
 850              		.cfi_endproc
 851              	.LFE149:
 853              		.section	.text.DAC_DMAErrorCh2,"ax",%progbits
 854              		.align	1
 855              		.global	DAC_DMAErrorCh2
 856              		.syntax unified
 857              		.thumb
 858              		.thumb_func
 859              		.fpu fpv5-d16
 861              	DAC_DMAErrorCh2:
 862              	.LVL71:
 863              	.LFB150:
 597:Drivers/STM32H7xx_HAL_Driver/Src/stm32h7xx_hal_dac_ex.c **** 
 598:Drivers/STM32H7xx_HAL_Driver/Src/stm32h7xx_hal_dac_ex.c **** /**
 599:Drivers/STM32H7xx_HAL_Driver/Src/stm32h7xx_hal_dac_ex.c ****   * @brief  DMA error callback. 
 600:Drivers/STM32H7xx_HAL_Driver/Src/stm32h7xx_hal_dac_ex.c ****   * @param  hdma: pointer to a DMA_HandleTypeDef structure that contains
 601:Drivers/STM32H7xx_HAL_Driver/Src/stm32h7xx_hal_dac_ex.c ****   *                the configuration information for the specified DMA module.
 602:Drivers/STM32H7xx_HAL_Driver/Src/stm32h7xx_hal_dac_ex.c ****   * @retval None
 603:Drivers/STM32H7xx_HAL_Driver/Src/stm32h7xx_hal_dac_ex.c ****   */
 604:Drivers/STM32H7xx_HAL_Driver/Src/stm32h7xx_hal_dac_ex.c **** void DAC_DMAErrorCh2(DMA_HandleTypeDef *hdma)   
 605:Drivers/STM32H7xx_HAL_Driver/Src/stm32h7xx_hal_dac_ex.c **** {
 864              		.loc 1 605 1 is_stmt 1 view -0
 865              		.cfi_startproc
 866              		@ args = 0, pretend = 0, frame = 0
 867              		@ frame_needed = 0, uses_anonymous_args = 0
 868              		.loc 1 605 1 is_stmt 0 view .LVU226
 869 0000 10B5     		push	{r4, lr}
 870              	.LCFI13:
 871              		.cfi_def_cfa_offset 8
ARM GAS  /tmp/cc9ftHNL.s 			page 27


 872              		.cfi_offset 4, -8
 873              		.cfi_offset 14, -4
 606:Drivers/STM32H7xx_HAL_Driver/Src/stm32h7xx_hal_dac_ex.c ****   DAC_HandleTypeDef* hdac = ( DAC_HandleTypeDef* )((DMA_HandleTypeDef* )hdma)->Parent;
 874              		.loc 1 606 3 is_stmt 1 view .LVU227
 875              		.loc 1 606 22 is_stmt 0 view .LVU228
 876 0002 846B     		ldr	r4, [r0, #56]
 877              	.LVL72:
 607:Drivers/STM32H7xx_HAL_Driver/Src/stm32h7xx_hal_dac_ex.c ****     
 608:Drivers/STM32H7xx_HAL_Driver/Src/stm32h7xx_hal_dac_ex.c ****   /* Set DAC error code to DMA error */
 609:Drivers/STM32H7xx_HAL_Driver/Src/stm32h7xx_hal_dac_ex.c ****   hdac->ErrorCode |= HAL_DAC_ERROR_DMA;
 878              		.loc 1 609 3 is_stmt 1 view .LVU229
 879              		.loc 1 609 19 is_stmt 0 view .LVU230
 880 0004 2369     		ldr	r3, [r4, #16]
 881 0006 43F00403 		orr	r3, r3, #4
 882 000a 2361     		str	r3, [r4, #16]
 610:Drivers/STM32H7xx_HAL_Driver/Src/stm32h7xx_hal_dac_ex.c ****     
 611:Drivers/STM32H7xx_HAL_Driver/Src/stm32h7xx_hal_dac_ex.c ****   HAL_DACEx_ErrorCallbackCh2(hdac); 
 883              		.loc 1 611 3 is_stmt 1 view .LVU231
 884 000c 2046     		mov	r0, r4
 885              	.LVL73:
 886              		.loc 1 611 3 is_stmt 0 view .LVU232
 887 000e FFF7FEFF 		bl	HAL_DACEx_ErrorCallbackCh2
 888              	.LVL74:
 612:Drivers/STM32H7xx_HAL_Driver/Src/stm32h7xx_hal_dac_ex.c ****     
 613:Drivers/STM32H7xx_HAL_Driver/Src/stm32h7xx_hal_dac_ex.c ****   hdac->State= HAL_DAC_STATE_READY;
 889              		.loc 1 613 3 is_stmt 1 view .LVU233
 890              		.loc 1 613 14 is_stmt 0 view .LVU234
 891 0012 0123     		movs	r3, #1
 892 0014 2371     		strb	r3, [r4, #4]
 614:Drivers/STM32H7xx_HAL_Driver/Src/stm32h7xx_hal_dac_ex.c **** }
 893              		.loc 1 614 1 view .LVU235
 894 0016 10BD     		pop	{r4, pc}
 895              		.loc 1 614 1 view .LVU236
 896              		.cfi_endproc
 897              	.LFE150:
 899              		.text
 900              	.Letext0:
 901              		.file 2 "/usr/arm-none-eabi/include/machine/_default_types.h"
 902              		.file 3 "/usr/arm-none-eabi/include/sys/_stdint.h"
 903              		.file 4 "Drivers/CMSIS/Include/core_cm7.h"
 904              		.file 5 "Drivers/CMSIS/Device/ST/STM32H7xx/Include/system_stm32h7xx.h"
 905              		.file 6 "Drivers/CMSIS/Device/ST/STM32H7xx/Include/stm32h743xx.h"
 906              		.file 7 "/usr/arm-none-eabi/include/sys/lock.h"
 907              		.file 8 "/usr/arm-none-eabi/include/sys/_types.h"
 908              		.file 9 "/usr/lib/gcc/arm-none-eabi/8.2.0/include/stddef.h"
 909              		.file 10 "/usr/arm-none-eabi/include/sys/reent.h"
 910              		.file 11 "Drivers/STM32H7xx_HAL_Driver/Inc/stm32h7xx_hal_def.h"
 911              		.file 12 "Drivers/STM32H7xx_HAL_Driver/Inc/stm32h7xx_hal_dma.h"
 912              		.file 13 "Drivers/STM32H7xx_HAL_Driver/Inc/stm32h7xx_hal_dac.h"
 913              		.file 14 "Drivers/STM32H7xx_HAL_Driver/Inc/stm32h7xx_hal.h"
ARM GAS  /tmp/cc9ftHNL.s 			page 28

